
.\output\kernel8.img:     file format elf64-littleaarch64


Disassembly of section .text:

0000000000080000 <__start>:
   80000:	d53800a0 	mrs	x0, mpidr_el1
   80004:	92400400 	and	x0, x0, #0x3
   80008:	b5000180 	cbnz	x0, 80038 <halt>
   8000c:	580001a0 	ldr	x0, 80040 <halt+0x8>
   80010:	9100001f 	mov	sp, x0
   80014:	580001a4 	ldr	x4, 80048 <halt+0x10>
   80018:	580001c9 	ldr	x9, 80050 <halt+0x18>
   8001c:	52800005 	mov	w5, #0x0                   	// #0

0000000000080020 <bss_next_word>:
   80020:	eb09009f 	cmp	x4, x9
   80024:	5400008a 	b.ge	80034 <bss_end>  // b.tcont
   80028:	b9000085 	str	w5, [x4]
   8002c:	91001084 	add	x4, x4, #0x4
   80030:	17fffffc 	b	80020 <bss_next_word>

0000000000080034 <bss_end>:
   80034:	94000022 	bl	800bc <main>

0000000000080038 <halt>:
   80038:	d503205f 	wfe
   8003c:	17ffffff 	b	80038 <halt>
   80040:	003872e0 	.word	0x003872e0
   80044:	00000000 	.word	0x00000000
   80048:	00082f30 	.word	0x00082f30
   8004c:	00000000 	.word	0x00000000
   80050:	00082f58 	.word	0x00082f58
   80054:	00000000 	.word	0x00000000

0000000000080058 <memcpy>:
   80058:	d100c3ff 	sub	sp, sp, #0x30
   8005c:	f9000fe0 	str	x0, [sp, #24]
   80060:	f9000be1 	str	x1, [sp, #16]
   80064:	f90007e2 	str	x2, [sp, #8]
   80068:	f9400fe0 	ldr	x0, [sp, #24]
   8006c:	f90017e0 	str	x0, [sp, #40]
   80070:	f9400be0 	ldr	x0, [sp, #16]
   80074:	f90013e0 	str	x0, [sp, #32]
   80078:	14000009 	b	8009c <memcpy+0x44>
   8007c:	f94013e1 	ldr	x1, [sp, #32]
   80080:	91000420 	add	x0, x1, #0x1
   80084:	f90013e0 	str	x0, [sp, #32]
   80088:	f94017e0 	ldr	x0, [sp, #40]
   8008c:	91000402 	add	x2, x0, #0x1
   80090:	f90017e2 	str	x2, [sp, #40]
   80094:	39400021 	ldrb	w1, [x1]
   80098:	39000001 	strb	w1, [x0]
   8009c:	f94007e0 	ldr	x0, [sp, #8]
   800a0:	d1000401 	sub	x1, x0, #0x1
   800a4:	f90007e1 	str	x1, [sp, #8]
   800a8:	f100001f 	cmp	x0, #0x0
   800ac:	54fffe81 	b.ne	8007c <memcpy+0x24>  // b.any
   800b0:	f9400fe0 	ldr	x0, [sp, #24]
   800b4:	9100c3ff 	add	sp, sp, #0x30
   800b8:	d65f03c0 	ret

00000000000800bc <main>:
   800bc:	a9be7bfd 	stp	x29, x30, [sp, #-32]!
   800c0:	910003fd 	mov	x29, sp
   800c4:	940005d8 	bl	81824 <hal_io_serial_init>
   800c8:	94000612 	bl	81910 <hal_video_init>
   800cc:	7100041f 	cmp	w0, #0x1
   800d0:	540000e1 	b.ne	800ec <main+0x30>  // b.any
   800d4:	90001820 	adrp	x0, 384000 <__rodata_start+0x790>
   800d8:	91092001 	add	x1, x0, #0x248
   800dc:	52800000 	mov	w0, #0x0                   	// #0
   800e0:	940005d7 	bl	8183c <hal_io_serial_puts>
   800e4:	94000024 	bl	80174 <wait_for_ten_secs>
   800e8:	17fffffb 	b	800d4 <main+0x18>
   800ec:	39007fff 	strb	wzr, [sp, #31]
   800f0:	91007fe0 	add	x0, sp, #0x1f
   800f4:	94000992 	bl	8273c <uart0_nonblocking_getc>
   800f8:	39407fe0 	ldrb	w0, [sp, #31]
   800fc:	7101841f 	cmp	w0, #0x61
   80100:	54000161 	b.ne	8012c <main+0x70>  // b.any
   80104:	d0000000 	adrp	x0, 82000 <delays_wait_microsecs+0x68>
   80108:	91288000 	add	x0, x0, #0xa20
   8010c:	79ca0400 	ldrsh	w0, [x0, #1282]
   80110:	12003c00 	and	w0, w0, #0xffff
   80114:	51002800 	sub	w0, w0, #0xa
   80118:	12003c00 	and	w0, w0, #0xffff
   8011c:	13003c01 	sxth	w1, w0
   80120:	d0000000 	adrp	x0, 82000 <delays_wait_microsecs+0x68>
   80124:	91288000 	add	x0, x0, #0xa20
   80128:	790a0401 	strh	w1, [x0, #1282]
   8012c:	39407fe0 	ldrb	w0, [sp, #31]
   80130:	7101901f 	cmp	w0, #0x64
   80134:	54000161 	b.ne	80160 <main+0xa4>  // b.any
   80138:	d0000000 	adrp	x0, 82000 <delays_wait_microsecs+0x68>
   8013c:	91288000 	add	x0, x0, #0xa20
   80140:	79ca0400 	ldrsh	w0, [x0, #1282]
   80144:	12003c00 	and	w0, w0, #0xffff
   80148:	11002800 	add	w0, w0, #0xa
   8014c:	12003c00 	and	w0, w0, #0xffff
   80150:	13003c01 	sxth	w1, w0
   80154:	d0000000 	adrp	x0, 82000 <delays_wait_microsecs+0x68>
   80158:	91288000 	add	x0, x0, #0xa20
   8015c:	790a0401 	strh	w1, [x0, #1282]
   80160:	d0000000 	adrp	x0, 82000 <delays_wait_microsecs+0x68>
   80164:	91288000 	add	x0, x0, #0xa20
   80168:	9400063c 	bl	81a58 <drawShape>
   8016c:	940006a8 	bl	81c0c <draw>
   80170:	17ffffdf 	b	800ec <main+0x30>

0000000000080174 <wait_for_ten_secs>:
   80174:	a9be7bfd 	stp	x29, x30, [sp, #-32]!
   80178:	910003fd 	mov	x29, sp
   8017c:	b9001fff 	str	wzr, [sp, #28]
   80180:	14000006 	b	80198 <wait_for_ten_secs+0x24>
   80184:	52807d00 	mov	w0, #0x3e8                 	// #1000
   80188:	9400059d 	bl	817fc <hal_cpu_delay>
   8018c:	b9401fe0 	ldr	w0, [sp, #28]
   80190:	11000400 	add	w0, w0, #0x1
   80194:	b9001fe0 	str	w0, [sp, #28]
   80198:	b9401fe0 	ldr	w0, [sp, #28]
   8019c:	7100241f 	cmp	w0, #0x9
   801a0:	54ffff29 	b.ls	80184 <wait_for_ten_secs+0x10>  // b.plast
   801a4:	d503201f 	nop
   801a8:	a8c27bfd 	ldp	x29, x30, [sp], #32
   801ac:	d65f03c0 	ret

00000000000801b0 <fonts_init>:
   801b0:	d0000000 	adrp	x0, 82000 <delays_wait_microsecs+0x68>
   801b4:	913d6000 	add	x0, x0, #0xf58
   801b8:	a9007c1f 	stp	xzr, xzr, [x0]
   801bc:	a9017c1f 	stp	xzr, xzr, [x0, #16]
   801c0:	a9027c1f 	stp	xzr, xzr, [x0, #32]
   801c4:	a9037c1f 	stp	xzr, xzr, [x0, #48]
   801c8:	a9047c1f 	stp	xzr, xzr, [x0, #64]
   801cc:	b900501f 	str	wzr, [x0, #80]
   801d0:	d0000000 	adrp	x0, 82000 <delays_wait_microsecs+0x68>
   801d4:	913d6000 	add	x0, x0, #0xf58
   801d8:	52800281 	mov	w1, #0x14                  	// #20
   801dc:	79000401 	strh	w1, [x0, #2]
   801e0:	d0000000 	adrp	x0, 82000 <delays_wait_microsecs+0x68>
   801e4:	913d6000 	add	x0, x0, #0xf58
   801e8:	52800141 	mov	w1, #0xa                   	// #10
   801ec:	79000801 	strh	w1, [x0, #4]
   801f0:	d0000000 	adrp	x0, 82000 <delays_wait_microsecs+0x68>
   801f4:	913d6000 	add	x0, x0, #0xf58
   801f8:	52800281 	mov	w1, #0x14                  	// #20
   801fc:	79001001 	strh	w1, [x0, #8]
   80200:	d0000000 	adrp	x0, 82000 <delays_wait_microsecs+0x68>
   80204:	913d6000 	add	x0, x0, #0xf58
   80208:	52800281 	mov	w1, #0x14                  	// #20
   8020c:	79001401 	strh	w1, [x0, #10]
   80210:	d0000000 	adrp	x0, 82000 <delays_wait_microsecs+0x68>
   80214:	913d6000 	add	x0, x0, #0xf58
   80218:	52800141 	mov	w1, #0xa                   	// #10
   8021c:	79001801 	strh	w1, [x0, #12]
   80220:	d0000000 	adrp	x0, 82000 <delays_wait_microsecs+0x68>
   80224:	913d6000 	add	x0, x0, #0xf58
   80228:	528000a1 	mov	w1, #0x5                   	// #5
   8022c:	79002001 	strh	w1, [x0, #16]
   80230:	d0000000 	adrp	x0, 82000 <delays_wait_microsecs+0x68>
   80234:	913d6000 	add	x0, x0, #0xf58
   80238:	52800181 	mov	w1, #0xc                   	// #12
   8023c:	79002401 	strh	w1, [x0, #18]
   80240:	d0000000 	adrp	x0, 82000 <delays_wait_microsecs+0x68>
   80244:	913d6000 	add	x0, x0, #0xf58
   80248:	528001e1 	mov	w1, #0xf                   	// #15
   8024c:	79002801 	strh	w1, [x0, #20]
   80250:	d0000000 	adrp	x0, 82000 <delays_wait_microsecs+0x68>
   80254:	913d6000 	add	x0, x0, #0xf58
   80258:	52800181 	mov	w1, #0xc                   	// #12
   8025c:	79002c01 	strh	w1, [x0, #22]
   80260:	d0000000 	adrp	x0, 82000 <delays_wait_microsecs+0x68>
   80264:	913d6000 	add	x0, x0, #0xf58
   80268:	52800061 	mov	w1, #0x3                   	// #3
   8026c:	b9005001 	str	w1, [x0, #80]
   80270:	d0000000 	adrp	x0, 82000 <delays_wait_microsecs+0x68>
   80274:	913d6000 	add	x0, x0, #0xf58
   80278:	91015002 	add	x2, x0, #0x54
   8027c:	90001820 	adrp	x0, 384000 <__rodata_start+0x790>
   80280:	9109e001 	add	x1, x0, #0x278
   80284:	aa0203e0 	mov	x0, x2
   80288:	a9400c22 	ldp	x2, x3, [x1]
   8028c:	a9000c02 	stp	x2, x3, [x0]
   80290:	a9410c22 	ldp	x2, x3, [x1, #16]
   80294:	a9010c02 	stp	x2, x3, [x0, #16]
   80298:	a9420c22 	ldp	x2, x3, [x1, #32]
   8029c:	a9020c02 	stp	x2, x3, [x0, #32]
   802a0:	a9430c22 	ldp	x2, x3, [x1, #48]
   802a4:	a9030c02 	stp	x2, x3, [x0, #48]
   802a8:	a9440c22 	ldp	x2, x3, [x1, #64]
   802ac:	a9040c02 	stp	x2, x3, [x0, #64]
   802b0:	b9405021 	ldr	w1, [x1, #80]
   802b4:	b9005001 	str	w1, [x0, #80]
   802b8:	d0000000 	adrp	x0, 82000 <delays_wait_microsecs+0x68>
   802bc:	913d6000 	add	x0, x0, #0xf58
   802c0:	9102a000 	add	x0, x0, #0xa8
   802c4:	a9007c1f 	stp	xzr, xzr, [x0]
   802c8:	a9017c1f 	stp	xzr, xzr, [x0, #16]
   802cc:	a9027c1f 	stp	xzr, xzr, [x0, #32]
   802d0:	a9037c1f 	stp	xzr, xzr, [x0, #48]
   802d4:	a9047c1f 	stp	xzr, xzr, [x0, #64]
   802d8:	b900501f 	str	wzr, [x0, #80]
   802dc:	d0000000 	adrp	x0, 82000 <delays_wait_microsecs+0x68>
   802e0:	913d6000 	add	x0, x0, #0xf58
   802e4:	52800281 	mov	w1, #0x14                  	// #20
   802e8:	79015c01 	strh	w1, [x0, #174]
   802ec:	d0000000 	adrp	x0, 82000 <delays_wait_microsecs+0x68>
   802f0:	913d6000 	add	x0, x0, #0xf58
   802f4:	52800281 	mov	w1, #0x14                  	// #20
   802f8:	79016801 	strh	w1, [x0, #180]
   802fc:	d0000000 	adrp	x0, 82000 <delays_wait_microsecs+0x68>
   80300:	913d6000 	add	x0, x0, #0xf58
   80304:	52800281 	mov	w1, #0x14                  	// #20
   80308:	79017401 	strh	w1, [x0, #186]
   8030c:	d0000000 	adrp	x0, 82000 <delays_wait_microsecs+0x68>
   80310:	913d6000 	add	x0, x0, #0xf58
   80314:	52800281 	mov	w1, #0x14                  	// #20
   80318:	79017801 	strh	w1, [x0, #188]
   8031c:	d0000000 	adrp	x0, 82000 <delays_wait_microsecs+0x68>
   80320:	913d6000 	add	x0, x0, #0xf58
   80324:	52800281 	mov	w1, #0x14                  	// #20
   80328:	79017c01 	strh	w1, [x0, #190]
   8032c:	d0000000 	adrp	x0, 82000 <delays_wait_microsecs+0x68>
   80330:	913d6000 	add	x0, x0, #0xf58
   80334:	52800061 	mov	w1, #0x3                   	// #3
   80338:	b900f801 	str	w1, [x0, #248]
   8033c:	d0000000 	adrp	x0, 82000 <delays_wait_microsecs+0x68>
   80340:	913d6000 	add	x0, x0, #0xf58
   80344:	9103f000 	add	x0, x0, #0xfc
   80348:	a9007c1f 	stp	xzr, xzr, [x0]
   8034c:	a9017c1f 	stp	xzr, xzr, [x0, #16]
   80350:	a9027c1f 	stp	xzr, xzr, [x0, #32]
   80354:	a9037c1f 	stp	xzr, xzr, [x0, #48]
   80358:	a9047c1f 	stp	xzr, xzr, [x0, #64]
   8035c:	b900501f 	str	wzr, [x0, #80]
   80360:	d0000000 	adrp	x0, 82000 <delays_wait_microsecs+0x68>
   80364:	913d6000 	add	x0, x0, #0xf58
   80368:	52800281 	mov	w1, #0x14                  	// #20
   8036c:	79020401 	strh	w1, [x0, #258]
   80370:	d0000000 	adrp	x0, 82000 <delays_wait_microsecs+0x68>
   80374:	913d6000 	add	x0, x0, #0xf58
   80378:	52800221 	mov	w1, #0x11                  	// #17
   8037c:	79021001 	strh	w1, [x0, #264]
   80380:	d0000000 	adrp	x0, 82000 <delays_wait_microsecs+0x68>
   80384:	913d6000 	add	x0, x0, #0xf58
   80388:	52800221 	mov	w1, #0x11                  	// #17
   8038c:	79021801 	strh	w1, [x0, #268]
   80390:	d0000000 	adrp	x0, 82000 <delays_wait_microsecs+0x68>
   80394:	913d6000 	add	x0, x0, #0xf58
   80398:	52800281 	mov	w1, #0x14                  	// #20
   8039c:	79022001 	strh	w1, [x0, #272]
   803a0:	d0000000 	adrp	x0, 82000 <delays_wait_microsecs+0x68>
   803a4:	913d6000 	add	x0, x0, #0xf58
   803a8:	52800061 	mov	w1, #0x3                   	// #3
   803ac:	79022401 	strh	w1, [x0, #274]
   803b0:	d0000000 	adrp	x0, 82000 <delays_wait_microsecs+0x68>
   803b4:	913d6000 	add	x0, x0, #0xf58
   803b8:	52800281 	mov	w1, #0x14                  	// #20
   803bc:	79022801 	strh	w1, [x0, #276]
   803c0:	d0000000 	adrp	x0, 82000 <delays_wait_microsecs+0x68>
   803c4:	913d6000 	add	x0, x0, #0xf58
   803c8:	52800061 	mov	w1, #0x3                   	// #3
   803cc:	79022c01 	strh	w1, [x0, #278]
   803d0:	d0000000 	adrp	x0, 82000 <delays_wait_microsecs+0x68>
   803d4:	913d6000 	add	x0, x0, #0xf58
   803d8:	52800281 	mov	w1, #0x14                  	// #20
   803dc:	79023001 	strh	w1, [x0, #280]
   803e0:	d0000000 	adrp	x0, 82000 <delays_wait_microsecs+0x68>
   803e4:	913d6000 	add	x0, x0, #0xf58
   803e8:	52800221 	mov	w1, #0x11                  	// #17
   803ec:	79023401 	strh	w1, [x0, #282]
   803f0:	d0000000 	adrp	x0, 82000 <delays_wait_microsecs+0x68>
   803f4:	913d6000 	add	x0, x0, #0xf58
   803f8:	52800281 	mov	w1, #0x14                  	// #20
   803fc:	79023801 	strh	w1, [x0, #284]
   80400:	d0000000 	adrp	x0, 82000 <delays_wait_microsecs+0x68>
   80404:	913d6000 	add	x0, x0, #0xf58
   80408:	52800221 	mov	w1, #0x11                  	// #17
   8040c:	79023c01 	strh	w1, [x0, #286]
   80410:	d0000000 	adrp	x0, 82000 <delays_wait_microsecs+0x68>
   80414:	913d6000 	add	x0, x0, #0xf58
   80418:	52800221 	mov	w1, #0x11                  	// #17
   8041c:	79024001 	strh	w1, [x0, #288]
   80420:	d0000000 	adrp	x0, 82000 <delays_wait_microsecs+0x68>
   80424:	913d6000 	add	x0, x0, #0xf58
   80428:	52800281 	mov	w1, #0x14                  	// #20
   8042c:	79024401 	strh	w1, [x0, #290]
   80430:	d0000000 	adrp	x0, 82000 <delays_wait_microsecs+0x68>
   80434:	913d6000 	add	x0, x0, #0xf58
   80438:	52800221 	mov	w1, #0x11                  	// #17
   8043c:	79024801 	strh	w1, [x0, #292]
   80440:	d0000000 	adrp	x0, 82000 <delays_wait_microsecs+0x68>
   80444:	913d6000 	add	x0, x0, #0xf58
   80448:	52800281 	mov	w1, #0x14                  	// #20
   8044c:	79024c01 	strh	w1, [x0, #294]
   80450:	d0000000 	adrp	x0, 82000 <delays_wait_microsecs+0x68>
   80454:	913d6000 	add	x0, x0, #0xf58
   80458:	52800281 	mov	w1, #0x14                  	// #20
   8045c:	79025401 	strh	w1, [x0, #298]
   80460:	d0000000 	adrp	x0, 82000 <delays_wait_microsecs+0x68>
   80464:	913d6000 	add	x0, x0, #0xf58
   80468:	528000c1 	mov	w1, #0x6                   	// #6
   8046c:	b9014c01 	str	w1, [x0, #332]
   80470:	d0000000 	adrp	x0, 82000 <delays_wait_microsecs+0x68>
   80474:	913d6000 	add	x0, x0, #0xf58
   80478:	91054000 	add	x0, x0, #0x150
   8047c:	a9007c1f 	stp	xzr, xzr, [x0]
   80480:	a9017c1f 	stp	xzr, xzr, [x0, #16]
   80484:	a9027c1f 	stp	xzr, xzr, [x0, #32]
   80488:	a9037c1f 	stp	xzr, xzr, [x0, #48]
   8048c:	a9047c1f 	stp	xzr, xzr, [x0, #64]
   80490:	b900501f 	str	wzr, [x0, #80]
   80494:	d0000000 	adrp	x0, 82000 <delays_wait_microsecs+0x68>
   80498:	913d6000 	add	x0, x0, #0xf58
   8049c:	52800281 	mov	w1, #0x14                  	// #20
   804a0:	7902ac01 	strh	w1, [x0, #342]
   804a4:	d0000000 	adrp	x0, 82000 <delays_wait_microsecs+0x68>
   804a8:	913d6000 	add	x0, x0, #0xf58
   804ac:	52800281 	mov	w1, #0x14                  	// #20
   804b0:	7902b801 	strh	w1, [x0, #348]
   804b4:	d0000000 	adrp	x0, 82000 <delays_wait_microsecs+0x68>
   804b8:	913d6000 	add	x0, x0, #0xf58
   804bc:	52800281 	mov	w1, #0x14                  	// #20
   804c0:	7902c401 	strh	w1, [x0, #354]
   804c4:	d0000000 	adrp	x0, 82000 <delays_wait_microsecs+0x68>
   804c8:	913d6000 	add	x0, x0, #0xf58
   804cc:	52800281 	mov	w1, #0x14                  	// #20
   804d0:	7902c801 	strh	w1, [x0, #356]
   804d4:	d0000000 	adrp	x0, 82000 <delays_wait_microsecs+0x68>
   804d8:	913d6000 	add	x0, x0, #0xf58
   804dc:	52800281 	mov	w1, #0x14                  	// #20
   804e0:	7902cc01 	strh	w1, [x0, #358]
   804e4:	d0000000 	adrp	x0, 82000 <delays_wait_microsecs+0x68>
   804e8:	913d6000 	add	x0, x0, #0xf58
   804ec:	52800141 	mov	w1, #0xa                   	// #10
   804f0:	7902d401 	strh	w1, [x0, #362]
   804f4:	d0000000 	adrp	x0, 82000 <delays_wait_microsecs+0x68>
   804f8:	913d6000 	add	x0, x0, #0xf58
   804fc:	52800281 	mov	w1, #0x14                  	// #20
   80500:	7902d801 	strh	w1, [x0, #364]
   80504:	d0000000 	adrp	x0, 82000 <delays_wait_microsecs+0x68>
   80508:	913d6000 	add	x0, x0, #0xf58
   8050c:	52800141 	mov	w1, #0xa                   	// #10
   80510:	7902dc01 	strh	w1, [x0, #366]
   80514:	d0000000 	adrp	x0, 82000 <delays_wait_microsecs+0x68>
   80518:	913d6000 	add	x0, x0, #0xf58
   8051c:	52800081 	mov	w1, #0x4                   	// #4
   80520:	b901a001 	str	w1, [x0, #416]
   80524:	d0000000 	adrp	x0, 82000 <delays_wait_microsecs+0x68>
   80528:	913d6000 	add	x0, x0, #0xf58
   8052c:	91069000 	add	x0, x0, #0x1a4
   80530:	a9007c1f 	stp	xzr, xzr, [x0]
   80534:	a9017c1f 	stp	xzr, xzr, [x0, #16]
   80538:	a9027c1f 	stp	xzr, xzr, [x0, #32]
   8053c:	a9037c1f 	stp	xzr, xzr, [x0, #48]
   80540:	a9047c1f 	stp	xzr, xzr, [x0, #64]
   80544:	b900501f 	str	wzr, [x0, #80]
   80548:	d0000000 	adrp	x0, 82000 <delays_wait_microsecs+0x68>
   8054c:	913d6000 	add	x0, x0, #0xf58
   80550:	52800281 	mov	w1, #0x14                  	// #20
   80554:	79035001 	strh	w1, [x0, #424]
   80558:	d0000000 	adrp	x0, 82000 <delays_wait_microsecs+0x68>
   8055c:	913d6000 	add	x0, x0, #0xf58
   80560:	52800141 	mov	w1, #0xa                   	// #10
   80564:	79035c01 	strh	w1, [x0, #430]
   80568:	d0000000 	adrp	x0, 82000 <delays_wait_microsecs+0x68>
   8056c:	913d6000 	add	x0, x0, #0xf58
   80570:	52800281 	mov	w1, #0x14                  	// #20
   80574:	79036001 	strh	w1, [x0, #432]
   80578:	d0000000 	adrp	x0, 82000 <delays_wait_microsecs+0x68>
   8057c:	913d6000 	add	x0, x0, #0xf58
   80580:	52800141 	mov	w1, #0xa                   	// #10
   80584:	79036401 	strh	w1, [x0, #434]
   80588:	d0000000 	adrp	x0, 82000 <delays_wait_microsecs+0x68>
   8058c:	913d6000 	add	x0, x0, #0xf58
   80590:	52800281 	mov	w1, #0x14                  	// #20
   80594:	79037401 	strh	w1, [x0, #442]
   80598:	d0000000 	adrp	x0, 82000 <delays_wait_microsecs+0x68>
   8059c:	913d6000 	add	x0, x0, #0xf58
   805a0:	52800061 	mov	w1, #0x3                   	// #3
   805a4:	b901f401 	str	w1, [x0, #500]
   805a8:	d0000000 	adrp	x0, 82000 <delays_wait_microsecs+0x68>
   805ac:	913d6000 	add	x0, x0, #0xf58
   805b0:	9107e000 	add	x0, x0, #0x1f8
   805b4:	a9007c1f 	stp	xzr, xzr, [x0]
   805b8:	a9017c1f 	stp	xzr, xzr, [x0, #16]
   805bc:	a9027c1f 	stp	xzr, xzr, [x0, #32]
   805c0:	a9037c1f 	stp	xzr, xzr, [x0, #48]
   805c4:	a9047c1f 	stp	xzr, xzr, [x0, #64]
   805c8:	b900501f 	str	wzr, [x0, #80]
   805cc:	d0000000 	adrp	x0, 82000 <delays_wait_microsecs+0x68>
   805d0:	913d6000 	add	x0, x0, #0xf58
   805d4:	52800281 	mov	w1, #0x14                  	// #20
   805d8:	7903fc01 	strh	w1, [x0, #510]
   805dc:	d0000000 	adrp	x0, 82000 <delays_wait_microsecs+0x68>
   805e0:	913d6000 	add	x0, x0, #0xf58
   805e4:	52800281 	mov	w1, #0x14                  	// #20
   805e8:	79040801 	strh	w1, [x0, #516]
   805ec:	d0000000 	adrp	x0, 82000 <delays_wait_microsecs+0x68>
   805f0:	913d6000 	add	x0, x0, #0xf58
   805f4:	52800281 	mov	w1, #0x14                  	// #20
   805f8:	79041401 	strh	w1, [x0, #522]
   805fc:	d0000000 	adrp	x0, 82000 <delays_wait_microsecs+0x68>
   80600:	913d6000 	add	x0, x0, #0xf58
   80604:	52800281 	mov	w1, #0x14                  	// #20
   80608:	79041801 	strh	w1, [x0, #524]
   8060c:	d0000000 	adrp	x0, 82000 <delays_wait_microsecs+0x68>
   80610:	913d6000 	add	x0, x0, #0xf58
   80614:	52800281 	mov	w1, #0x14                  	// #20
   80618:	79041c01 	strh	w1, [x0, #526]
   8061c:	d0000000 	adrp	x0, 82000 <delays_wait_microsecs+0x68>
   80620:	913d6000 	add	x0, x0, #0xf58
   80624:	52800281 	mov	w1, #0x14                  	// #20
   80628:	79042001 	strh	w1, [x0, #528]
   8062c:	d0000000 	adrp	x0, 82000 <delays_wait_microsecs+0x68>
   80630:	913d6000 	add	x0, x0, #0xf58
   80634:	52800281 	mov	w1, #0x14                  	// #20
   80638:	79042401 	strh	w1, [x0, #530]
   8063c:	d0000000 	adrp	x0, 82000 <delays_wait_microsecs+0x68>
   80640:	913d6000 	add	x0, x0, #0xf58
   80644:	52800281 	mov	w1, #0x14                  	// #20
   80648:	79042801 	strh	w1, [x0, #532]
   8064c:	d0000000 	adrp	x0, 82000 <delays_wait_microsecs+0x68>
   80650:	913d6000 	add	x0, x0, #0xf58
   80654:	528001a1 	mov	w1, #0xd                   	// #13
   80658:	79042c01 	strh	w1, [x0, #534]
   8065c:	d0000000 	adrp	x0, 82000 <delays_wait_microsecs+0x68>
   80660:	913d6000 	add	x0, x0, #0xf58
   80664:	528001a1 	mov	w1, #0xd                   	// #13
   80668:	79043001 	strh	w1, [x0, #536]
   8066c:	d0000000 	adrp	x0, 82000 <delays_wait_microsecs+0x68>
   80670:	913d6000 	add	x0, x0, #0xf58
   80674:	528001a1 	mov	w1, #0xd                   	// #13
   80678:	79043401 	strh	w1, [x0, #538]
   8067c:	d0000000 	adrp	x0, 82000 <delays_wait_microsecs+0x68>
   80680:	913d6000 	add	x0, x0, #0xf58
   80684:	52800281 	mov	w1, #0x14                  	// #20
   80688:	79043801 	strh	w1, [x0, #540]
   8068c:	d0000000 	adrp	x0, 82000 <delays_wait_microsecs+0x68>
   80690:	913d6000 	add	x0, x0, #0xf58
   80694:	528001a1 	mov	w1, #0xd                   	// #13
   80698:	79043c01 	strh	w1, [x0, #542]
   8069c:	d0000000 	adrp	x0, 82000 <delays_wait_microsecs+0x68>
   806a0:	913d6000 	add	x0, x0, #0xf58
   806a4:	528000a1 	mov	w1, #0x5                   	// #5
   806a8:	b9024801 	str	w1, [x0, #584]
   806ac:	d0000000 	adrp	x0, 82000 <delays_wait_microsecs+0x68>
   806b0:	913d6000 	add	x0, x0, #0xf58
   806b4:	91100000 	add	x0, x0, #0x400
   806b8:	d106d000 	sub	x0, x0, #0x1b4
   806bc:	a9007c1f 	stp	xzr, xzr, [x0]
   806c0:	a9017c1f 	stp	xzr, xzr, [x0, #16]
   806c4:	a9027c1f 	stp	xzr, xzr, [x0, #32]
   806c8:	a9037c1f 	stp	xzr, xzr, [x0, #48]
   806cc:	a9047c1f 	stp	xzr, xzr, [x0, #64]
   806d0:	b900501f 	str	wzr, [x0, #80]
   806d4:	d0000000 	adrp	x0, 82000 <delays_wait_microsecs+0x68>
   806d8:	913d6000 	add	x0, x0, #0xf58
   806dc:	52800281 	mov	w1, #0x14                  	// #20
   806e0:	7904a401 	strh	w1, [x0, #594]
   806e4:	d0000000 	adrp	x0, 82000 <delays_wait_microsecs+0x68>
   806e8:	913d6000 	add	x0, x0, #0xf58
   806ec:	52800281 	mov	w1, #0x14                  	// #20
   806f0:	7904a801 	strh	w1, [x0, #596]
   806f4:	d0000000 	adrp	x0, 82000 <delays_wait_microsecs+0x68>
   806f8:	913d6000 	add	x0, x0, #0xf58
   806fc:	52800281 	mov	w1, #0x14                  	// #20
   80700:	7904b001 	strh	w1, [x0, #600]
   80704:	d0000000 	adrp	x0, 82000 <delays_wait_microsecs+0x68>
   80708:	913d6000 	add	x0, x0, #0xf58
   8070c:	52800281 	mov	w1, #0x14                  	// #20
   80710:	7904b401 	strh	w1, [x0, #602]
   80714:	d0000000 	adrp	x0, 82000 <delays_wait_microsecs+0x68>
   80718:	913d6000 	add	x0, x0, #0xf58
   8071c:	52800141 	mov	w1, #0xa                   	// #10
   80720:	7904bc01 	strh	w1, [x0, #606]
   80724:	d0000000 	adrp	x0, 82000 <delays_wait_microsecs+0x68>
   80728:	913d6000 	add	x0, x0, #0xf58
   8072c:	52800281 	mov	w1, #0x14                  	// #20
   80730:	7904c001 	strh	w1, [x0, #608]
   80734:	d0000000 	adrp	x0, 82000 <delays_wait_microsecs+0x68>
   80738:	913d6000 	add	x0, x0, #0xf58
   8073c:	52800141 	mov	w1, #0xa                   	// #10
   80740:	7904c401 	strh	w1, [x0, #610]
   80744:	d0000000 	adrp	x0, 82000 <delays_wait_microsecs+0x68>
   80748:	913d6000 	add	x0, x0, #0xf58
   8074c:	52800061 	mov	w1, #0x3                   	// #3
   80750:	b9029c01 	str	w1, [x0, #668]
   80754:	d0000000 	adrp	x0, 82000 <delays_wait_microsecs+0x68>
   80758:	913d6000 	add	x0, x0, #0xf58
   8075c:	91100000 	add	x0, x0, #0x400
   80760:	d1058000 	sub	x0, x0, #0x160
   80764:	a9007c1f 	stp	xzr, xzr, [x0]
   80768:	a9017c1f 	stp	xzr, xzr, [x0, #16]
   8076c:	a9027c1f 	stp	xzr, xzr, [x0, #32]
   80770:	a9037c1f 	stp	xzr, xzr, [x0, #48]
   80774:	a9047c1f 	stp	xzr, xzr, [x0, #64]
   80778:	b900501f 	str	wzr, [x0, #80]
   8077c:	d0000000 	adrp	x0, 82000 <delays_wait_microsecs+0x68>
   80780:	913d6000 	add	x0, x0, #0xf58
   80784:	52800141 	mov	w1, #0xa                   	// #10
   80788:	79054001 	strh	w1, [x0, #672]
   8078c:	d0000000 	adrp	x0, 82000 <delays_wait_microsecs+0x68>
   80790:	913d6000 	add	x0, x0, #0xf58
   80794:	52800141 	mov	w1, #0xa                   	// #10
   80798:	79054801 	strh	w1, [x0, #676]
   8079c:	d0000000 	adrp	x0, 82000 <delays_wait_microsecs+0x68>
   807a0:	913d6000 	add	x0, x0, #0xf58
   807a4:	52800281 	mov	w1, #0x14                  	// #20
   807a8:	79054c01 	strh	w1, [x0, #678]
   807ac:	d0000000 	adrp	x0, 82000 <delays_wait_microsecs+0x68>
   807b0:	913d6000 	add	x0, x0, #0xf58
   807b4:	52800281 	mov	w1, #0x14                  	// #20
   807b8:	79055801 	strh	w1, [x0, #684]
   807bc:	d0000000 	adrp	x0, 82000 <delays_wait_microsecs+0x68>
   807c0:	913d6000 	add	x0, x0, #0xf58
   807c4:	52800281 	mov	w1, #0x14                  	// #20
   807c8:	79056401 	strh	w1, [x0, #690]
   807cc:	d0000000 	adrp	x0, 82000 <delays_wait_microsecs+0x68>
   807d0:	913d6000 	add	x0, x0, #0xf58
   807d4:	52800281 	mov	w1, #0x14                  	// #20
   807d8:	79056801 	strh	w1, [x0, #692]
   807dc:	d0000000 	adrp	x0, 82000 <delays_wait_microsecs+0x68>
   807e0:	913d6000 	add	x0, x0, #0xf58
   807e4:	52800281 	mov	w1, #0x14                  	// #20
   807e8:	79056c01 	strh	w1, [x0, #694]
   807ec:	d0000000 	adrp	x0, 82000 <delays_wait_microsecs+0x68>
   807f0:	913d6000 	add	x0, x0, #0xf58
   807f4:	52800061 	mov	w1, #0x3                   	// #3
   807f8:	b902f001 	str	w1, [x0, #752]
   807fc:	d0000000 	adrp	x0, 82000 <delays_wait_microsecs+0x68>
   80800:	913d6000 	add	x0, x0, #0xf58
   80804:	91100000 	add	x0, x0, #0x400
   80808:	d1043000 	sub	x0, x0, #0x10c
   8080c:	a9007c1f 	stp	xzr, xzr, [x0]
   80810:	a9017c1f 	stp	xzr, xzr, [x0, #16]
   80814:	a9027c1f 	stp	xzr, xzr, [x0, #32]
   80818:	a9037c1f 	stp	xzr, xzr, [x0, #48]
   8081c:	a9047c1f 	stp	xzr, xzr, [x0, #64]
   80820:	b900501f 	str	wzr, [x0, #80]
   80824:	d0000000 	adrp	x0, 82000 <delays_wait_microsecs+0x68>
   80828:	913d6000 	add	x0, x0, #0xf58
   8082c:	52800141 	mov	w1, #0xa                   	// #10
   80830:	7905e801 	strh	w1, [x0, #756]
   80834:	d0000000 	adrp	x0, 82000 <delays_wait_microsecs+0x68>
   80838:	913d6000 	add	x0, x0, #0xf58
   8083c:	52800141 	mov	w1, #0xa                   	// #10
   80840:	7905f001 	strh	w1, [x0, #760]
   80844:	d0000000 	adrp	x0, 82000 <delays_wait_microsecs+0x68>
   80848:	913d6000 	add	x0, x0, #0xf58
   8084c:	52800281 	mov	w1, #0x14                  	// #20
   80850:	7905f401 	strh	w1, [x0, #762]
   80854:	d0000000 	adrp	x0, 82000 <delays_wait_microsecs+0x68>
   80858:	913d6000 	add	x0, x0, #0xf58
   8085c:	52800281 	mov	w1, #0x14                  	// #20
   80860:	79060001 	strh	w1, [x0, #768]
   80864:	d0000000 	adrp	x0, 82000 <delays_wait_microsecs+0x68>
   80868:	913d6000 	add	x0, x0, #0xf58
   8086c:	52800281 	mov	w1, #0x14                  	// #20
   80870:	79060c01 	strh	w1, [x0, #774]
   80874:	d0000000 	adrp	x0, 82000 <delays_wait_microsecs+0x68>
   80878:	913d6000 	add	x0, x0, #0xf58
   8087c:	52800141 	mov	w1, #0xa                   	// #10
   80880:	79061001 	strh	w1, [x0, #776]
   80884:	d0000000 	adrp	x0, 82000 <delays_wait_microsecs+0x68>
   80888:	913d6000 	add	x0, x0, #0xf58
   8088c:	52800281 	mov	w1, #0x14                  	// #20
   80890:	79061401 	strh	w1, [x0, #778]
   80894:	d0000000 	adrp	x0, 82000 <delays_wait_microsecs+0x68>
   80898:	913d6000 	add	x0, x0, #0xf58
   8089c:	52800281 	mov	w1, #0x14                  	// #20
   808a0:	79061c01 	strh	w1, [x0, #782]
   808a4:	d0000000 	adrp	x0, 82000 <delays_wait_microsecs+0x68>
   808a8:	913d6000 	add	x0, x0, #0xf58
   808ac:	528001a1 	mov	w1, #0xd                   	// #13
   808b0:	79062401 	strh	w1, [x0, #786]
   808b4:	d0000000 	adrp	x0, 82000 <delays_wait_microsecs+0x68>
   808b8:	913d6000 	add	x0, x0, #0xf58
   808bc:	52800081 	mov	w1, #0x4                   	// #4
   808c0:	b9034401 	str	w1, [x0, #836]
   808c4:	d0000000 	adrp	x0, 82000 <delays_wait_microsecs+0x68>
   808c8:	913d6000 	add	x0, x0, #0xf58
   808cc:	91100000 	add	x0, x0, #0x400
   808d0:	d102e000 	sub	x0, x0, #0xb8
   808d4:	a9007c1f 	stp	xzr, xzr, [x0]
   808d8:	a9017c1f 	stp	xzr, xzr, [x0, #16]
   808dc:	a9027c1f 	stp	xzr, xzr, [x0, #32]
   808e0:	a9037c1f 	stp	xzr, xzr, [x0, #48]
   808e4:	a9047c1f 	stp	xzr, xzr, [x0, #64]
   808e8:	b900501f 	str	wzr, [x0, #80]
   808ec:	d0000000 	adrp	x0, 82000 <delays_wait_microsecs+0x68>
   808f0:	913d6000 	add	x0, x0, #0xf58
   808f4:	52800281 	mov	w1, #0x14                  	// #20
   808f8:	79069c01 	strh	w1, [x0, #846]
   808fc:	d0000000 	adrp	x0, 82000 <delays_wait_microsecs+0x68>
   80900:	913d6000 	add	x0, x0, #0xf58
   80904:	52800141 	mov	w1, #0xa                   	// #10
   80908:	7906a401 	strh	w1, [x0, #850]
   8090c:	d0000000 	adrp	x0, 82000 <delays_wait_microsecs+0x68>
   80910:	913d6000 	add	x0, x0, #0xf58
   80914:	52800281 	mov	w1, #0x14                  	// #20
   80918:	7906a801 	strh	w1, [x0, #852]
   8091c:	d0000000 	adrp	x0, 82000 <delays_wait_microsecs+0x68>
   80920:	913d6000 	add	x0, x0, #0xf58
   80924:	52800141 	mov	w1, #0xa                   	// #10
   80928:	7906b401 	strh	w1, [x0, #858]
   8092c:	d0000000 	adrp	x0, 82000 <delays_wait_microsecs+0x68>
   80930:	913d6000 	add	x0, x0, #0xf58
   80934:	52800281 	mov	w1, #0x14                  	// #20
   80938:	7906b801 	strh	w1, [x0, #860]
   8093c:	d0000000 	adrp	x0, 82000 <delays_wait_microsecs+0x68>
   80940:	913d6000 	add	x0, x0, #0xf58
   80944:	52800281 	mov	w1, #0x14                  	// #20
   80948:	7906bc01 	strh	w1, [x0, #862]
   8094c:	d0000000 	adrp	x0, 82000 <delays_wait_microsecs+0x68>
   80950:	913d6000 	add	x0, x0, #0xf58
   80954:	52800061 	mov	w1, #0x3                   	// #3
   80958:	b9039801 	str	w1, [x0, #920]
   8095c:	d0000000 	adrp	x0, 82000 <delays_wait_microsecs+0x68>
   80960:	913d6000 	add	x0, x0, #0xf58
   80964:	91100000 	add	x0, x0, #0x400
   80968:	d1019000 	sub	x0, x0, #0x64
   8096c:	a9007c1f 	stp	xzr, xzr, [x0]
   80970:	a9017c1f 	stp	xzr, xzr, [x0, #16]
   80974:	a9027c1f 	stp	xzr, xzr, [x0, #32]
   80978:	a9037c1f 	stp	xzr, xzr, [x0, #48]
   8097c:	a9047c1f 	stp	xzr, xzr, [x0, #64]
   80980:	b900501f 	str	wzr, [x0, #80]
   80984:	d0000000 	adrp	x0, 82000 <delays_wait_microsecs+0x68>
   80988:	913d6000 	add	x0, x0, #0xf58
   8098c:	52800281 	mov	w1, #0x14                  	// #20
   80990:	79074401 	strh	w1, [x0, #930]
   80994:	d0000000 	adrp	x0, 82000 <delays_wait_microsecs+0x68>
   80998:	913d6000 	add	x0, x0, #0xf58
   8099c:	52800281 	mov	w1, #0x14                  	// #20
   809a0:	79074c01 	strh	w1, [x0, #934]
   809a4:	d0000000 	adrp	x0, 82000 <delays_wait_microsecs+0x68>
   809a8:	913d6000 	add	x0, x0, #0xf58
   809ac:	52800281 	mov	w1, #0x14                  	// #20
   809b0:	79075001 	strh	w1, [x0, #936]
   809b4:	d0000000 	adrp	x0, 82000 <delays_wait_microsecs+0x68>
   809b8:	913d6000 	add	x0, x0, #0xf58
   809bc:	52800281 	mov	w1, #0x14                  	// #20
   809c0:	79075401 	strh	w1, [x0, #938]
   809c4:	d0000000 	adrp	x0, 82000 <delays_wait_microsecs+0x68>
   809c8:	913d6000 	add	x0, x0, #0xf58
   809cc:	52800041 	mov	w1, #0x2                   	// #2
   809d0:	b903ec01 	str	w1, [x0, #1004]
   809d4:	d0000000 	adrp	x0, 82000 <delays_wait_microsecs+0x68>
   809d8:	913d6000 	add	x0, x0, #0xf58
   809dc:	91100000 	add	x0, x0, #0x400
   809e0:	d1004000 	sub	x0, x0, #0x10
   809e4:	a9007c1f 	stp	xzr, xzr, [x0]
   809e8:	a9017c1f 	stp	xzr, xzr, [x0, #16]
   809ec:	a9027c1f 	stp	xzr, xzr, [x0, #32]
   809f0:	a9037c1f 	stp	xzr, xzr, [x0, #48]
   809f4:	a9047c1f 	stp	xzr, xzr, [x0, #64]
   809f8:	b900501f 	str	wzr, [x0, #80]
   809fc:	d0000000 	adrp	x0, 82000 <delays_wait_microsecs+0x68>
   80a00:	913d6000 	add	x0, x0, #0xf58
   80a04:	52800281 	mov	w1, #0x14                  	// #20
   80a08:	7907ec01 	strh	w1, [x0, #1014]
   80a0c:	d0000000 	adrp	x0, 82000 <delays_wait_microsecs+0x68>
   80a10:	913d6000 	add	x0, x0, #0xf58
   80a14:	52800141 	mov	w1, #0xa                   	// #10
   80a18:	7907f801 	strh	w1, [x0, #1020]
   80a1c:	d0000000 	adrp	x0, 82000 <delays_wait_microsecs+0x68>
   80a20:	913d6000 	add	x0, x0, #0xf58
   80a24:	52800281 	mov	w1, #0x14                  	// #20
   80a28:	7907fc01 	strh	w1, [x0, #1022]
   80a2c:	d0000000 	adrp	x0, 82000 <delays_wait_microsecs+0x68>
   80a30:	913d6000 	add	x0, x0, #0xf58
   80a34:	52800141 	mov	w1, #0xa                   	// #10
   80a38:	79080001 	strh	w1, [x0, #1024]
   80a3c:	d0000000 	adrp	x0, 82000 <delays_wait_microsecs+0x68>
   80a40:	913d6000 	add	x0, x0, #0xf58
   80a44:	52800281 	mov	w1, #0x14                  	// #20
   80a48:	79080401 	strh	w1, [x0, #1026]
   80a4c:	d0000000 	adrp	x0, 82000 <delays_wait_microsecs+0x68>
   80a50:	913d6000 	add	x0, x0, #0xf58
   80a54:	52800281 	mov	w1, #0x14                  	// #20
   80a58:	79080801 	strh	w1, [x0, #1028]
   80a5c:	d0000000 	adrp	x0, 82000 <delays_wait_microsecs+0x68>
   80a60:	913d6000 	add	x0, x0, #0xf58
   80a64:	52800281 	mov	w1, #0x14                  	// #20
   80a68:	79081001 	strh	w1, [x0, #1032]
   80a6c:	d0000000 	adrp	x0, 82000 <delays_wait_microsecs+0x68>
   80a70:	913d6000 	add	x0, x0, #0xf58
   80a74:	52800281 	mov	w1, #0x14                  	// #20
   80a78:	79081801 	strh	w1, [x0, #1036]
   80a7c:	d0000000 	adrp	x0, 82000 <delays_wait_microsecs+0x68>
   80a80:	913d6000 	add	x0, x0, #0xf58
   80a84:	52800281 	mov	w1, #0x14                  	// #20
   80a88:	79081c01 	strh	w1, [x0, #1038]
   80a8c:	d0000000 	adrp	x0, 82000 <delays_wait_microsecs+0x68>
   80a90:	913d6000 	add	x0, x0, #0xf58
   80a94:	52800081 	mov	w1, #0x4                   	// #4
   80a98:	b9044001 	str	w1, [x0, #1088]
   80a9c:	d0000000 	adrp	x0, 82000 <delays_wait_microsecs+0x68>
   80aa0:	913d6000 	add	x0, x0, #0xf58
   80aa4:	91100000 	add	x0, x0, #0x400
   80aa8:	91011000 	add	x0, x0, #0x44
   80aac:	a9007c1f 	stp	xzr, xzr, [x0]
   80ab0:	a9017c1f 	stp	xzr, xzr, [x0, #16]
   80ab4:	a9027c1f 	stp	xzr, xzr, [x0, #32]
   80ab8:	a9037c1f 	stp	xzr, xzr, [x0, #48]
   80abc:	a9047c1f 	stp	xzr, xzr, [x0, #64]
   80ac0:	b900501f 	str	wzr, [x0, #80]
   80ac4:	d0000000 	adrp	x0, 82000 <delays_wait_microsecs+0x68>
   80ac8:	913d6000 	add	x0, x0, #0xf58
   80acc:	52800281 	mov	w1, #0x14                  	// #20
   80ad0:	79089401 	strh	w1, [x0, #1098]
   80ad4:	d0000000 	adrp	x0, 82000 <delays_wait_microsecs+0x68>
   80ad8:	913d6000 	add	x0, x0, #0xf58
   80adc:	52800281 	mov	w1, #0x14                  	// #20
   80ae0:	79089801 	strh	w1, [x0, #1100]
   80ae4:	d0000000 	adrp	x0, 82000 <delays_wait_microsecs+0x68>
   80ae8:	913d6000 	add	x0, x0, #0xf58
   80aec:	52800281 	mov	w1, #0x14                  	// #20
   80af0:	7908a401 	strh	w1, [x0, #1106]
   80af4:	d0000000 	adrp	x0, 82000 <delays_wait_microsecs+0x68>
   80af8:	913d6000 	add	x0, x0, #0xf58
   80afc:	52800281 	mov	w1, #0x14                  	// #20
   80b00:	7908a801 	strh	w1, [x0, #1108]
   80b04:	d0000000 	adrp	x0, 82000 <delays_wait_microsecs+0x68>
   80b08:	913d6000 	add	x0, x0, #0xf58
   80b0c:	52800281 	mov	w1, #0x14                  	// #20
   80b10:	7908b001 	strh	w1, [x0, #1112]
   80b14:	d0000000 	adrp	x0, 82000 <delays_wait_microsecs+0x68>
   80b18:	913d6000 	add	x0, x0, #0xf58
   80b1c:	52800281 	mov	w1, #0x14                  	// #20
   80b20:	7908b401 	strh	w1, [x0, #1114]
   80b24:	d0000000 	adrp	x0, 82000 <delays_wait_microsecs+0x68>
   80b28:	913d6000 	add	x0, x0, #0xf58
   80b2c:	52800061 	mov	w1, #0x3                   	// #3
   80b30:	b9049401 	str	w1, [x0, #1172]
   80b34:	d0000000 	adrp	x0, 82000 <delays_wait_microsecs+0x68>
   80b38:	913d6000 	add	x0, x0, #0xf58
   80b3c:	91100000 	add	x0, x0, #0x400
   80b40:	91026000 	add	x0, x0, #0x98
   80b44:	a9007c1f 	stp	xzr, xzr, [x0]
   80b48:	a9017c1f 	stp	xzr, xzr, [x0, #16]
   80b4c:	a9027c1f 	stp	xzr, xzr, [x0, #32]
   80b50:	a9037c1f 	stp	xzr, xzr, [x0, #48]
   80b54:	a9047c1f 	stp	xzr, xzr, [x0, #64]
   80b58:	b900501f 	str	wzr, [x0, #80]
   80b5c:	d0000000 	adrp	x0, 82000 <delays_wait_microsecs+0x68>
   80b60:	913d6000 	add	x0, x0, #0xf58
   80b64:	52800061 	mov	w1, #0x3                   	// #3
   80b68:	79093401 	strh	w1, [x0, #1178]
   80b6c:	d0000000 	adrp	x0, 82000 <delays_wait_microsecs+0x68>
   80b70:	913d6000 	add	x0, x0, #0xf58
   80b74:	52800221 	mov	w1, #0x11                  	// #17
   80b78:	79093c01 	strh	w1, [x0, #1182]
   80b7c:	d0000000 	adrp	x0, 82000 <delays_wait_microsecs+0x68>
   80b80:	913d6000 	add	x0, x0, #0xf58
   80b84:	52800061 	mov	w1, #0x3                   	// #3
   80b88:	79094001 	strh	w1, [x0, #1184]
   80b8c:	d0000000 	adrp	x0, 82000 <delays_wait_microsecs+0x68>
   80b90:	913d6000 	add	x0, x0, #0xf58
   80b94:	52800061 	mov	w1, #0x3                   	// #3
   80b98:	79094c01 	strh	w1, [x0, #1190]
   80b9c:	d0000000 	adrp	x0, 82000 <delays_wait_microsecs+0x68>
   80ba0:	913d6000 	add	x0, x0, #0xf58
   80ba4:	52800221 	mov	w1, #0x11                  	// #17
   80ba8:	79095401 	strh	w1, [x0, #1194]
   80bac:	d0000000 	adrp	x0, 82000 <delays_wait_microsecs+0x68>
   80bb0:	913d6000 	add	x0, x0, #0xf58
   80bb4:	52800061 	mov	w1, #0x3                   	// #3
   80bb8:	79095801 	strh	w1, [x0, #1196]
   80bbc:	d0000000 	adrp	x0, 82000 <delays_wait_microsecs+0x68>
   80bc0:	913d6000 	add	x0, x0, #0xf58
   80bc4:	52800281 	mov	w1, #0x14                  	// #20
   80bc8:	79095c01 	strh	w1, [x0, #1198]
   80bcc:	d0000000 	adrp	x0, 82000 <delays_wait_microsecs+0x68>
   80bd0:	913d6000 	add	x0, x0, #0xf58
   80bd4:	52800061 	mov	w1, #0x3                   	// #3
   80bd8:	79096001 	strh	w1, [x0, #1200]
   80bdc:	d0000000 	adrp	x0, 82000 <delays_wait_microsecs+0x68>
   80be0:	913d6000 	add	x0, x0, #0xf58
   80be4:	52800221 	mov	w1, #0x11                  	// #17
   80be8:	79096801 	strh	w1, [x0, #1204]
   80bec:	d0000000 	adrp	x0, 82000 <delays_wait_microsecs+0x68>
   80bf0:	913d6000 	add	x0, x0, #0xf58
   80bf4:	52800221 	mov	w1, #0x11                  	// #17
   80bf8:	79097001 	strh	w1, [x0, #1208]
   80bfc:	d0000000 	adrp	x0, 82000 <delays_wait_microsecs+0x68>
   80c00:	913d6000 	add	x0, x0, #0xf58
   80c04:	52800281 	mov	w1, #0x14                  	// #20
   80c08:	79097801 	strh	w1, [x0, #1212]
   80c0c:	d0000000 	adrp	x0, 82000 <delays_wait_microsecs+0x68>
   80c10:	913d6000 	add	x0, x0, #0xf58
   80c14:	52800061 	mov	w1, #0x3                   	// #3
   80c18:	79097c01 	strh	w1, [x0, #1214]
   80c1c:	d0000000 	adrp	x0, 82000 <delays_wait_microsecs+0x68>
   80c20:	913d6000 	add	x0, x0, #0xf58
   80c24:	52800281 	mov	w1, #0x14                  	// #20
   80c28:	79098001 	strh	w1, [x0, #1216]
   80c2c:	d0000000 	adrp	x0, 82000 <delays_wait_microsecs+0x68>
   80c30:	913d6000 	add	x0, x0, #0xf58
   80c34:	52800061 	mov	w1, #0x3                   	// #3
   80c38:	79098401 	strh	w1, [x0, #1218]
   80c3c:	d0000000 	adrp	x0, 82000 <delays_wait_microsecs+0x68>
   80c40:	913d6000 	add	x0, x0, #0xf58
   80c44:	52800281 	mov	w1, #0x14                  	// #20
   80c48:	79098801 	strh	w1, [x0, #1220]
   80c4c:	d0000000 	adrp	x0, 82000 <delays_wait_microsecs+0x68>
   80c50:	913d6000 	add	x0, x0, #0xf58
   80c54:	52800221 	mov	w1, #0x11                  	// #17
   80c58:	79098c01 	strh	w1, [x0, #1222]
   80c5c:	d0000000 	adrp	x0, 82000 <delays_wait_microsecs+0x68>
   80c60:	913d6000 	add	x0, x0, #0xf58
   80c64:	52800281 	mov	w1, #0x14                  	// #20
   80c68:	79099001 	strh	w1, [x0, #1224]
   80c6c:	d0000000 	adrp	x0, 82000 <delays_wait_microsecs+0x68>
   80c70:	913d6000 	add	x0, x0, #0xf58
   80c74:	52800221 	mov	w1, #0x11                  	// #17
   80c78:	79099401 	strh	w1, [x0, #1226]
   80c7c:	d0000000 	adrp	x0, 82000 <delays_wait_microsecs+0x68>
   80c80:	913d6000 	add	x0, x0, #0xf58
   80c84:	52800221 	mov	w1, #0x11                  	// #17
   80c88:	79099801 	strh	w1, [x0, #1228]
   80c8c:	d0000000 	adrp	x0, 82000 <delays_wait_microsecs+0x68>
   80c90:	913d6000 	add	x0, x0, #0xf58
   80c94:	52800281 	mov	w1, #0x14                  	// #20
   80c98:	79099c01 	strh	w1, [x0, #1230]
   80c9c:	d0000000 	adrp	x0, 82000 <delays_wait_microsecs+0x68>
   80ca0:	913d6000 	add	x0, x0, #0xf58
   80ca4:	52800221 	mov	w1, #0x11                  	// #17
   80ca8:	7909a001 	strh	w1, [x0, #1232]
   80cac:	d0000000 	adrp	x0, 82000 <delays_wait_microsecs+0x68>
   80cb0:	913d6000 	add	x0, x0, #0xf58
   80cb4:	52800281 	mov	w1, #0x14                  	// #20
   80cb8:	7909a401 	strh	w1, [x0, #1234]
   80cbc:	d0000000 	adrp	x0, 82000 <delays_wait_microsecs+0x68>
   80cc0:	913d6000 	add	x0, x0, #0xf58
   80cc4:	52800061 	mov	w1, #0x3                   	// #3
   80cc8:	7909a801 	strh	w1, [x0, #1236]
   80ccc:	d0000000 	adrp	x0, 82000 <delays_wait_microsecs+0x68>
   80cd0:	913d6000 	add	x0, x0, #0xf58
   80cd4:	52800281 	mov	w1, #0x14                  	// #20
   80cd8:	7909ac01 	strh	w1, [x0, #1238]
   80cdc:	d0000000 	adrp	x0, 82000 <delays_wait_microsecs+0x68>
   80ce0:	913d6000 	add	x0, x0, #0xf58
   80ce4:	52800101 	mov	w1, #0x8                   	// #8
   80ce8:	b904e801 	str	w1, [x0, #1256]
   80cec:	d0000000 	adrp	x0, 82000 <delays_wait_microsecs+0x68>
   80cf0:	913d6000 	add	x0, x0, #0xf58
   80cf4:	91100000 	add	x0, x0, #0x400
   80cf8:	9103b000 	add	x0, x0, #0xec
   80cfc:	a9007c1f 	stp	xzr, xzr, [x0]
   80d00:	a9017c1f 	stp	xzr, xzr, [x0, #16]
   80d04:	a9027c1f 	stp	xzr, xzr, [x0, #32]
   80d08:	a9037c1f 	stp	xzr, xzr, [x0, #48]
   80d0c:	a9047c1f 	stp	xzr, xzr, [x0, #64]
   80d10:	b900501f 	str	wzr, [x0, #80]
   80d14:	d0000000 	adrp	x0, 82000 <delays_wait_microsecs+0x68>
   80d18:	913d6000 	add	x0, x0, #0xf58
   80d1c:	52800281 	mov	w1, #0x14                  	// #20
   80d20:	7909e401 	strh	w1, [x0, #1266]
   80d24:	d0000000 	adrp	x0, 82000 <delays_wait_microsecs+0x68>
   80d28:	913d6000 	add	x0, x0, #0xf58
   80d2c:	52800281 	mov	w1, #0x14                  	// #20
   80d30:	7909f001 	strh	w1, [x0, #1272]
   80d34:	d0000000 	adrp	x0, 82000 <delays_wait_microsecs+0x68>
   80d38:	913d6000 	add	x0, x0, #0xf58
   80d3c:	52800281 	mov	w1, #0x14                  	// #20
   80d40:	7909f801 	strh	w1, [x0, #1276]
   80d44:	d0000000 	adrp	x0, 82000 <delays_wait_microsecs+0x68>
   80d48:	913d6000 	add	x0, x0, #0xf58
   80d4c:	52800281 	mov	w1, #0x14                  	// #20
   80d50:	790a0001 	strh	w1, [x0, #1280]
   80d54:	d0000000 	adrp	x0, 82000 <delays_wait_microsecs+0x68>
   80d58:	913d6000 	add	x0, x0, #0xf58
   80d5c:	52800141 	mov	w1, #0xa                   	// #10
   80d60:	790a0401 	strh	w1, [x0, #1282]
   80d64:	d0000000 	adrp	x0, 82000 <delays_wait_microsecs+0x68>
   80d68:	913d6000 	add	x0, x0, #0xf58
   80d6c:	52800281 	mov	w1, #0x14                  	// #20
   80d70:	790a0801 	strh	w1, [x0, #1284]
   80d74:	d0000000 	adrp	x0, 82000 <delays_wait_microsecs+0x68>
   80d78:	913d6000 	add	x0, x0, #0xf58
   80d7c:	52800141 	mov	w1, #0xa                   	// #10
   80d80:	790a0c01 	strh	w1, [x0, #1286]
   80d84:	d0000000 	adrp	x0, 82000 <delays_wait_microsecs+0x68>
   80d88:	913d6000 	add	x0, x0, #0xf58
   80d8c:	52800141 	mov	w1, #0xa                   	// #10
   80d90:	790a1401 	strh	w1, [x0, #1290]
   80d94:	d0000000 	adrp	x0, 82000 <delays_wait_microsecs+0x68>
   80d98:	913d6000 	add	x0, x0, #0xf58
   80d9c:	52800081 	mov	w1, #0x4                   	// #4
   80da0:	b9053c01 	str	w1, [x0, #1340]
   80da4:	d0000000 	adrp	x0, 82000 <delays_wait_microsecs+0x68>
   80da8:	913d6000 	add	x0, x0, #0xf58
   80dac:	91100000 	add	x0, x0, #0x400
   80db0:	91050000 	add	x0, x0, #0x140
   80db4:	a9007c1f 	stp	xzr, xzr, [x0]
   80db8:	a9017c1f 	stp	xzr, xzr, [x0, #16]
   80dbc:	a9027c1f 	stp	xzr, xzr, [x0, #32]
   80dc0:	a9037c1f 	stp	xzr, xzr, [x0, #48]
   80dc4:	a9047c1f 	stp	xzr, xzr, [x0, #64]
   80dc8:	b900501f 	str	wzr, [x0, #80]
   80dcc:	d0000000 	adrp	x0, 82000 <delays_wait_microsecs+0x68>
   80dd0:	913d6000 	add	x0, x0, #0xf58
   80dd4:	52800061 	mov	w1, #0x3                   	// #3
   80dd8:	790a8401 	strh	w1, [x0, #1346]
   80ddc:	d0000000 	adrp	x0, 82000 <delays_wait_microsecs+0x68>
   80de0:	913d6000 	add	x0, x0, #0xf58
   80de4:	52800221 	mov	w1, #0x11                  	// #17
   80de8:	790a8c01 	strh	w1, [x0, #1350]
   80dec:	d0000000 	adrp	x0, 82000 <delays_wait_microsecs+0x68>
   80df0:	913d6000 	add	x0, x0, #0xf58
   80df4:	52800061 	mov	w1, #0x3                   	// #3
   80df8:	790a9001 	strh	w1, [x0, #1352]
   80dfc:	d0000000 	adrp	x0, 82000 <delays_wait_microsecs+0x68>
   80e00:	913d6000 	add	x0, x0, #0xf58
   80e04:	52800061 	mov	w1, #0x3                   	// #3
   80e08:	790a9c01 	strh	w1, [x0, #1358]
   80e0c:	d0000000 	adrp	x0, 82000 <delays_wait_microsecs+0x68>
   80e10:	913d6000 	add	x0, x0, #0xf58
   80e14:	52800221 	mov	w1, #0x11                  	// #17
   80e18:	790aa401 	strh	w1, [x0, #1362]
   80e1c:	d0000000 	adrp	x0, 82000 <delays_wait_microsecs+0x68>
   80e20:	913d6000 	add	x0, x0, #0xf58
   80e24:	52800061 	mov	w1, #0x3                   	// #3
   80e28:	790aa801 	strh	w1, [x0, #1364]
   80e2c:	d0000000 	adrp	x0, 82000 <delays_wait_microsecs+0x68>
   80e30:	913d6000 	add	x0, x0, #0xf58
   80e34:	52800281 	mov	w1, #0x14                  	// #20
   80e38:	790aac01 	strh	w1, [x0, #1366]
   80e3c:	d0000000 	adrp	x0, 82000 <delays_wait_microsecs+0x68>
   80e40:	913d6000 	add	x0, x0, #0xf58
   80e44:	52800061 	mov	w1, #0x3                   	// #3
   80e48:	790ab001 	strh	w1, [x0, #1368]
   80e4c:	d0000000 	adrp	x0, 82000 <delays_wait_microsecs+0x68>
   80e50:	913d6000 	add	x0, x0, #0xf58
   80e54:	52800221 	mov	w1, #0x11                  	// #17
   80e58:	790ab801 	strh	w1, [x0, #1372]
   80e5c:	d0000000 	adrp	x0, 82000 <delays_wait_microsecs+0x68>
   80e60:	913d6000 	add	x0, x0, #0xf58
   80e64:	52800221 	mov	w1, #0x11                  	// #17
   80e68:	790ac001 	strh	w1, [x0, #1376]
   80e6c:	d0000000 	adrp	x0, 82000 <delays_wait_microsecs+0x68>
   80e70:	913d6000 	add	x0, x0, #0xf58
   80e74:	52800281 	mov	w1, #0x14                  	// #20
   80e78:	790ac801 	strh	w1, [x0, #1380]
   80e7c:	d0000000 	adrp	x0, 82000 <delays_wait_microsecs+0x68>
   80e80:	913d6000 	add	x0, x0, #0xf58
   80e84:	52800061 	mov	w1, #0x3                   	// #3
   80e88:	790acc01 	strh	w1, [x0, #1382]
   80e8c:	d0000000 	adrp	x0, 82000 <delays_wait_microsecs+0x68>
   80e90:	913d6000 	add	x0, x0, #0xf58
   80e94:	52800281 	mov	w1, #0x14                  	// #20
   80e98:	790ad001 	strh	w1, [x0, #1384]
   80e9c:	d0000000 	adrp	x0, 82000 <delays_wait_microsecs+0x68>
   80ea0:	913d6000 	add	x0, x0, #0xf58
   80ea4:	52800061 	mov	w1, #0x3                   	// #3
   80ea8:	790ad401 	strh	w1, [x0, #1386]
   80eac:	d0000000 	adrp	x0, 82000 <delays_wait_microsecs+0x68>
   80eb0:	913d6000 	add	x0, x0, #0xf58
   80eb4:	52800281 	mov	w1, #0x14                  	// #20
   80eb8:	790ad801 	strh	w1, [x0, #1388]
   80ebc:	d0000000 	adrp	x0, 82000 <delays_wait_microsecs+0x68>
   80ec0:	913d6000 	add	x0, x0, #0xf58
   80ec4:	52800221 	mov	w1, #0x11                  	// #17
   80ec8:	790adc01 	strh	w1, [x0, #1390]
   80ecc:	d0000000 	adrp	x0, 82000 <delays_wait_microsecs+0x68>
   80ed0:	913d6000 	add	x0, x0, #0xf58
   80ed4:	52800281 	mov	w1, #0x14                  	// #20
   80ed8:	790ae001 	strh	w1, [x0, #1392]
   80edc:	d0000000 	adrp	x0, 82000 <delays_wait_microsecs+0x68>
   80ee0:	913d6000 	add	x0, x0, #0xf58
   80ee4:	52800221 	mov	w1, #0x11                  	// #17
   80ee8:	790ae401 	strh	w1, [x0, #1394]
   80eec:	d0000000 	adrp	x0, 82000 <delays_wait_microsecs+0x68>
   80ef0:	913d6000 	add	x0, x0, #0xf58
   80ef4:	52800221 	mov	w1, #0x11                  	// #17
   80ef8:	790ae801 	strh	w1, [x0, #1396]
   80efc:	d0000000 	adrp	x0, 82000 <delays_wait_microsecs+0x68>
   80f00:	913d6000 	add	x0, x0, #0xf58
   80f04:	52800281 	mov	w1, #0x14                  	// #20
   80f08:	790aec01 	strh	w1, [x0, #1398]
   80f0c:	d0000000 	adrp	x0, 82000 <delays_wait_microsecs+0x68>
   80f10:	913d6000 	add	x0, x0, #0xf58
   80f14:	52800221 	mov	w1, #0x11                  	// #17
   80f18:	790af001 	strh	w1, [x0, #1400]
   80f1c:	d0000000 	adrp	x0, 82000 <delays_wait_microsecs+0x68>
   80f20:	913d6000 	add	x0, x0, #0xf58
   80f24:	52800281 	mov	w1, #0x14                  	// #20
   80f28:	790af401 	strh	w1, [x0, #1402]
   80f2c:	d0000000 	adrp	x0, 82000 <delays_wait_microsecs+0x68>
   80f30:	913d6000 	add	x0, x0, #0xf58
   80f34:	52800061 	mov	w1, #0x3                   	// #3
   80f38:	790af801 	strh	w1, [x0, #1404]
   80f3c:	d0000000 	adrp	x0, 82000 <delays_wait_microsecs+0x68>
   80f40:	913d6000 	add	x0, x0, #0xf58
   80f44:	52800281 	mov	w1, #0x14                  	// #20
   80f48:	790afc01 	strh	w1, [x0, #1406]
   80f4c:	d0000000 	adrp	x0, 82000 <delays_wait_microsecs+0x68>
   80f50:	913d6000 	add	x0, x0, #0xf58
   80f54:	52800281 	mov	w1, #0x14                  	// #20
   80f58:	790b0001 	strh	w1, [x0, #1408]
   80f5c:	d0000000 	adrp	x0, 82000 <delays_wait_microsecs+0x68>
   80f60:	913d6000 	add	x0, x0, #0xf58
   80f64:	52800281 	mov	w1, #0x14                  	// #20
   80f68:	790b0401 	strh	w1, [x0, #1410]
   80f6c:	d0000000 	adrp	x0, 82000 <delays_wait_microsecs+0x68>
   80f70:	913d6000 	add	x0, x0, #0xf58
   80f74:	52800221 	mov	w1, #0x11                  	// #17
   80f78:	790b0801 	strh	w1, [x0, #1412]
   80f7c:	d0000000 	adrp	x0, 82000 <delays_wait_microsecs+0x68>
   80f80:	913d6000 	add	x0, x0, #0xf58
   80f84:	52800221 	mov	w1, #0x11                  	// #17
   80f88:	790b0c01 	strh	w1, [x0, #1414]
   80f8c:	d0000000 	adrp	x0, 82000 <delays_wait_microsecs+0x68>
   80f90:	913d6000 	add	x0, x0, #0xf58
   80f94:	52800121 	mov	w1, #0x9                   	// #9
   80f98:	b9059001 	str	w1, [x0, #1424]
   80f9c:	d0000000 	adrp	x0, 82000 <delays_wait_microsecs+0x68>
   80fa0:	913d6000 	add	x0, x0, #0xf58
   80fa4:	91100000 	add	x0, x0, #0x400
   80fa8:	91065000 	add	x0, x0, #0x194
   80fac:	a9007c1f 	stp	xzr, xzr, [x0]
   80fb0:	a9017c1f 	stp	xzr, xzr, [x0, #16]
   80fb4:	a9027c1f 	stp	xzr, xzr, [x0, #32]
   80fb8:	a9037c1f 	stp	xzr, xzr, [x0, #48]
   80fbc:	a9047c1f 	stp	xzr, xzr, [x0, #64]
   80fc0:	b900501f 	str	wzr, [x0, #80]
   80fc4:	d0000000 	adrp	x0, 82000 <delays_wait_microsecs+0x68>
   80fc8:	913d6000 	add	x0, x0, #0xf58
   80fcc:	52800281 	mov	w1, #0x14                  	// #20
   80fd0:	790b3401 	strh	w1, [x0, #1434]
   80fd4:	d0000000 	adrp	x0, 82000 <delays_wait_microsecs+0x68>
   80fd8:	913d6000 	add	x0, x0, #0xf58
   80fdc:	52800221 	mov	w1, #0x11                  	// #17
   80fe0:	790b4001 	strh	w1, [x0, #1440]
   80fe4:	d0000000 	adrp	x0, 82000 <delays_wait_microsecs+0x68>
   80fe8:	913d6000 	add	x0, x0, #0xf58
   80fec:	52800221 	mov	w1, #0x11                  	// #17
   80ff0:	790b4801 	strh	w1, [x0, #1444]
   80ff4:	d0000000 	adrp	x0, 82000 <delays_wait_microsecs+0x68>
   80ff8:	913d6000 	add	x0, x0, #0xf58
   80ffc:	52800281 	mov	w1, #0x14                  	// #20
   81000:	790b5001 	strh	w1, [x0, #1448]
   81004:	b0000000 	adrp	x0, 82000 <delays_wait_microsecs+0x68>
   81008:	913d6000 	add	x0, x0, #0xf58
   8100c:	52800061 	mov	w1, #0x3                   	// #3
   81010:	790b5401 	strh	w1, [x0, #1450]
   81014:	b0000000 	adrp	x0, 82000 <delays_wait_microsecs+0x68>
   81018:	913d6000 	add	x0, x0, #0xf58
   8101c:	52800281 	mov	w1, #0x14                  	// #20
   81020:	790b5801 	strh	w1, [x0, #1452]
   81024:	b0000000 	adrp	x0, 82000 <delays_wait_microsecs+0x68>
   81028:	913d6000 	add	x0, x0, #0xf58
   8102c:	52800061 	mov	w1, #0x3                   	// #3
   81030:	790b5c01 	strh	w1, [x0, #1454]
   81034:	b0000000 	adrp	x0, 82000 <delays_wait_microsecs+0x68>
   81038:	913d6000 	add	x0, x0, #0xf58
   8103c:	52800281 	mov	w1, #0x14                  	// #20
   81040:	790b6001 	strh	w1, [x0, #1456]
   81044:	b0000000 	adrp	x0, 82000 <delays_wait_microsecs+0x68>
   81048:	913d6000 	add	x0, x0, #0xf58
   8104c:	528000e1 	mov	w1, #0x7                   	// #7
   81050:	790b6401 	strh	w1, [x0, #1458]
   81054:	b0000000 	adrp	x0, 82000 <delays_wait_microsecs+0x68>
   81058:	913d6000 	add	x0, x0, #0xf58
   8105c:	52800281 	mov	w1, #0x14                  	// #20
   81060:	790b6801 	strh	w1, [x0, #1460]
   81064:	b0000000 	adrp	x0, 82000 <delays_wait_microsecs+0x68>
   81068:	913d6000 	add	x0, x0, #0xf58
   8106c:	528000e1 	mov	w1, #0x7                   	// #7
   81070:	790b6c01 	strh	w1, [x0, #1462]
   81074:	b0000000 	adrp	x0, 82000 <delays_wait_microsecs+0x68>
   81078:	913d6000 	add	x0, x0, #0xf58
   8107c:	52800221 	mov	w1, #0x11                  	// #17
   81080:	790b7001 	strh	w1, [x0, #1464]
   81084:	b0000000 	adrp	x0, 82000 <delays_wait_microsecs+0x68>
   81088:	913d6000 	add	x0, x0, #0xf58
   8108c:	52800141 	mov	w1, #0xa                   	// #10
   81090:	790b7401 	strh	w1, [x0, #1466]
   81094:	b0000000 	adrp	x0, 82000 <delays_wait_microsecs+0x68>
   81098:	913d6000 	add	x0, x0, #0xf58
   8109c:	52800221 	mov	w1, #0x11                  	// #17
   810a0:	790b7801 	strh	w1, [x0, #1468]
   810a4:	b0000000 	adrp	x0, 82000 <delays_wait_microsecs+0x68>
   810a8:	913d6000 	add	x0, x0, #0xf58
   810ac:	52800141 	mov	w1, #0xa                   	// #10
   810b0:	790b7c01 	strh	w1, [x0, #1470]
   810b4:	b0000000 	adrp	x0, 82000 <delays_wait_microsecs+0x68>
   810b8:	913d6000 	add	x0, x0, #0xf58
   810bc:	52800141 	mov	w1, #0xa                   	// #10
   810c0:	790b8401 	strh	w1, [x0, #1474]
   810c4:	b0000000 	adrp	x0, 82000 <delays_wait_microsecs+0x68>
   810c8:	913d6000 	add	x0, x0, #0xf58
   810cc:	52800141 	mov	w1, #0xa                   	// #10
   810d0:	790b8801 	strh	w1, [x0, #1476]
   810d4:	b0000000 	adrp	x0, 82000 <delays_wait_microsecs+0x68>
   810d8:	913d6000 	add	x0, x0, #0xf58
   810dc:	52800141 	mov	w1, #0xa                   	// #10
   810e0:	790b8c01 	strh	w1, [x0, #1478]
   810e4:	b0000000 	adrp	x0, 82000 <delays_wait_microsecs+0x68>
   810e8:	913d6000 	add	x0, x0, #0xf58
   810ec:	52800281 	mov	w1, #0x14                  	// #20
   810f0:	790b9001 	strh	w1, [x0, #1480]
   810f4:	b0000000 	adrp	x0, 82000 <delays_wait_microsecs+0x68>
   810f8:	913d6000 	add	x0, x0, #0xf58
   810fc:	52800281 	mov	w1, #0x14                  	// #20
   81100:	790b9401 	strh	w1, [x0, #1482]
   81104:	b0000000 	adrp	x0, 82000 <delays_wait_microsecs+0x68>
   81108:	913d6000 	add	x0, x0, #0xf58
   8110c:	52800141 	mov	w1, #0xa                   	// #10
   81110:	b905e401 	str	w1, [x0, #1508]
   81114:	b0000000 	adrp	x0, 82000 <delays_wait_microsecs+0x68>
   81118:	913d6000 	add	x0, x0, #0xf58
   8111c:	91100000 	add	x0, x0, #0x400
   81120:	9107a000 	add	x0, x0, #0x1e8
   81124:	a9007c1f 	stp	xzr, xzr, [x0]
   81128:	a9017c1f 	stp	xzr, xzr, [x0, #16]
   8112c:	a9027c1f 	stp	xzr, xzr, [x0, #32]
   81130:	a9037c1f 	stp	xzr, xzr, [x0, #48]
   81134:	a9047c1f 	stp	xzr, xzr, [x0, #64]
   81138:	b900501f 	str	wzr, [x0, #80]
   8113c:	b0000000 	adrp	x0, 82000 <delays_wait_microsecs+0x68>
   81140:	913d6000 	add	x0, x0, #0xf58
   81144:	52800281 	mov	w1, #0x14                  	// #20
   81148:	790bd001 	strh	w1, [x0, #1512]
   8114c:	b0000000 	adrp	x0, 82000 <delays_wait_microsecs+0x68>
   81150:	913d6000 	add	x0, x0, #0xf58
   81154:	52800061 	mov	w1, #0x3                   	// #3
   81158:	790bd801 	strh	w1, [x0, #1516]
   8115c:	b0000000 	adrp	x0, 82000 <delays_wait_microsecs+0x68>
   81160:	913d6000 	add	x0, x0, #0xf58
   81164:	52800061 	mov	w1, #0x3                   	// #3
   81168:	790be001 	strh	w1, [x0, #1520]
   8116c:	b0000000 	adrp	x0, 82000 <delays_wait_microsecs+0x68>
   81170:	913d6000 	add	x0, x0, #0xf58
   81174:	52800061 	mov	w1, #0x3                   	// #3
   81178:	790bec01 	strh	w1, [x0, #1526]
   8117c:	b0000000 	adrp	x0, 82000 <delays_wait_microsecs+0x68>
   81180:	913d6000 	add	x0, x0, #0xf58
   81184:	52800061 	mov	w1, #0x3                   	// #3
   81188:	790bf401 	strh	w1, [x0, #1530]
   8118c:	b0000000 	adrp	x0, 82000 <delays_wait_microsecs+0x68>
   81190:	913d6000 	add	x0, x0, #0xf58
   81194:	528000e1 	mov	w1, #0x7                   	// #7
   81198:	790bfc01 	strh	w1, [x0, #1534]
   8119c:	b0000000 	adrp	x0, 82000 <delays_wait_microsecs+0x68>
   811a0:	913d6000 	add	x0, x0, #0xf58
   811a4:	528000e1 	mov	w1, #0x7                   	// #7
   811a8:	790c0401 	strh	w1, [x0, #1538]
   811ac:	b0000000 	adrp	x0, 82000 <delays_wait_microsecs+0x68>
   811b0:	913d6000 	add	x0, x0, #0xf58
   811b4:	52800061 	mov	w1, #0x3                   	// #3
   811b8:	790c0801 	strh	w1, [x0, #1540]
   811bc:	b0000000 	adrp	x0, 82000 <delays_wait_microsecs+0x68>
   811c0:	913d6000 	add	x0, x0, #0xf58
   811c4:	52800141 	mov	w1, #0xa                   	// #10
   811c8:	790c0c01 	strh	w1, [x0, #1542]
   811cc:	b0000000 	adrp	x0, 82000 <delays_wait_microsecs+0x68>
   811d0:	913d6000 	add	x0, x0, #0xf58
   811d4:	52800061 	mov	w1, #0x3                   	// #3
   811d8:	790c1001 	strh	w1, [x0, #1544]
   811dc:	b0000000 	adrp	x0, 82000 <delays_wait_microsecs+0x68>
   811e0:	913d6000 	add	x0, x0, #0xf58
   811e4:	52800141 	mov	w1, #0xa                   	// #10
   811e8:	790c1401 	strh	w1, [x0, #1546]
   811ec:	b0000000 	adrp	x0, 82000 <delays_wait_microsecs+0x68>
   811f0:	913d6000 	add	x0, x0, #0xf58
   811f4:	52800221 	mov	w1, #0x11                  	// #17
   811f8:	790c1801 	strh	w1, [x0, #1548]
   811fc:	b0000000 	adrp	x0, 82000 <delays_wait_microsecs+0x68>
   81200:	913d6000 	add	x0, x0, #0xf58
   81204:	52800141 	mov	w1, #0xa                   	// #10
   81208:	790c1c01 	strh	w1, [x0, #1550]
   8120c:	b0000000 	adrp	x0, 82000 <delays_wait_microsecs+0x68>
   81210:	913d6000 	add	x0, x0, #0xf58
   81214:	52800221 	mov	w1, #0x11                  	// #17
   81218:	790c2001 	strh	w1, [x0, #1552]
   8121c:	b0000000 	adrp	x0, 82000 <delays_wait_microsecs+0x68>
   81220:	913d6000 	add	x0, x0, #0xf58
   81224:	52800141 	mov	w1, #0xa                   	// #10
   81228:	790c2401 	strh	w1, [x0, #1554]
   8122c:	b0000000 	adrp	x0, 82000 <delays_wait_microsecs+0x68>
   81230:	913d6000 	add	x0, x0, #0xf58
   81234:	52800281 	mov	w1, #0x14                  	// #20
   81238:	790c2801 	strh	w1, [x0, #1556]
   8123c:	b0000000 	adrp	x0, 82000 <delays_wait_microsecs+0x68>
   81240:	913d6000 	add	x0, x0, #0xf58
   81244:	528001a1 	mov	w1, #0xd                   	// #13
   81248:	790c2c01 	strh	w1, [x0, #1558]
   8124c:	b0000000 	adrp	x0, 82000 <delays_wait_microsecs+0x68>
   81250:	913d6000 	add	x0, x0, #0xf58
   81254:	52800281 	mov	w1, #0x14                  	// #20
   81258:	790c3001 	strh	w1, [x0, #1560]
   8125c:	b0000000 	adrp	x0, 82000 <delays_wait_microsecs+0x68>
   81260:	913d6000 	add	x0, x0, #0xf58
   81264:	528001a1 	mov	w1, #0xd                   	// #13
   81268:	790c3401 	strh	w1, [x0, #1562]
   8126c:	b0000000 	adrp	x0, 82000 <delays_wait_microsecs+0x68>
   81270:	913d6000 	add	x0, x0, #0xf58
   81274:	52800281 	mov	w1, #0x14                  	// #20
   81278:	790c3801 	strh	w1, [x0, #1564]
   8127c:	b0000000 	adrp	x0, 82000 <delays_wait_microsecs+0x68>
   81280:	913d6000 	add	x0, x0, #0xf58
   81284:	52800221 	mov	w1, #0x11                  	// #17
   81288:	790c3c01 	strh	w1, [x0, #1566]
   8128c:	b0000000 	adrp	x0, 82000 <delays_wait_microsecs+0x68>
   81290:	913d6000 	add	x0, x0, #0xf58
   81294:	52800281 	mov	w1, #0x14                  	// #20
   81298:	790c4001 	strh	w1, [x0, #1568]
   8129c:	b0000000 	adrp	x0, 82000 <delays_wait_microsecs+0x68>
   812a0:	913d6000 	add	x0, x0, #0xf58
   812a4:	52800221 	mov	w1, #0x11                  	// #17
   812a8:	790c4401 	strh	w1, [x0, #1570]
   812ac:	b0000000 	adrp	x0, 82000 <delays_wait_microsecs+0x68>
   812b0:	913d6000 	add	x0, x0, #0xf58
   812b4:	52800221 	mov	w1, #0x11                  	// #17
   812b8:	790c4801 	strh	w1, [x0, #1572]
   812bc:	b0000000 	adrp	x0, 82000 <delays_wait_microsecs+0x68>
   812c0:	913d6000 	add	x0, x0, #0xf58
   812c4:	52800281 	mov	w1, #0x14                  	// #20
   812c8:	790c4c01 	strh	w1, [x0, #1574]
   812cc:	b0000000 	adrp	x0, 82000 <delays_wait_microsecs+0x68>
   812d0:	913d6000 	add	x0, x0, #0xf58
   812d4:	52800221 	mov	w1, #0x11                  	// #17
   812d8:	790c5001 	strh	w1, [x0, #1576]
   812dc:	b0000000 	adrp	x0, 82000 <delays_wait_microsecs+0x68>
   812e0:	913d6000 	add	x0, x0, #0xf58
   812e4:	52800281 	mov	w1, #0x14                  	// #20
   812e8:	790c5401 	strh	w1, [x0, #1578]
   812ec:	b0000000 	adrp	x0, 82000 <delays_wait_microsecs+0x68>
   812f0:	913d6000 	add	x0, x0, #0xf58
   812f4:	52800281 	mov	w1, #0x14                  	// #20
   812f8:	790c5c01 	strh	w1, [x0, #1582]
   812fc:	b0000000 	adrp	x0, 82000 <delays_wait_microsecs+0x68>
   81300:	913d6000 	add	x0, x0, #0xf58
   81304:	52800121 	mov	w1, #0x9                   	// #9
   81308:	b9063801 	str	w1, [x0, #1592]
   8130c:	b0000000 	adrp	x0, 82000 <delays_wait_microsecs+0x68>
   81310:	913d6000 	add	x0, x0, #0xf58
   81314:	91200000 	add	x0, x0, #0x800
   81318:	d1071000 	sub	x0, x0, #0x1c4
   8131c:	a9007c1f 	stp	xzr, xzr, [x0]
   81320:	a9017c1f 	stp	xzr, xzr, [x0, #16]
   81324:	a9027c1f 	stp	xzr, xzr, [x0, #32]
   81328:	a9037c1f 	stp	xzr, xzr, [x0, #48]
   8132c:	a9047c1f 	stp	xzr, xzr, [x0, #64]
   81330:	b900501f 	str	wzr, [x0, #80]
   81334:	b0000000 	adrp	x0, 82000 <delays_wait_microsecs+0x68>
   81338:	913d6000 	add	x0, x0, #0xf58
   8133c:	52800281 	mov	w1, #0x14                  	// #20
   81340:	790c8001 	strh	w1, [x0, #1600]
   81344:	b0000000 	adrp	x0, 82000 <delays_wait_microsecs+0x68>
   81348:	913d6000 	add	x0, x0, #0xf58
   8134c:	52800141 	mov	w1, #0xa                   	// #10
   81350:	790c8801 	strh	w1, [x0, #1604]
   81354:	b0000000 	adrp	x0, 82000 <delays_wait_microsecs+0x68>
   81358:	913d6000 	add	x0, x0, #0xf58
   8135c:	52800141 	mov	w1, #0xa                   	// #10
   81360:	790c9001 	strh	w1, [x0, #1608]
   81364:	b0000000 	adrp	x0, 82000 <delays_wait_microsecs+0x68>
   81368:	913d6000 	add	x0, x0, #0xf58
   8136c:	52800281 	mov	w1, #0x14                  	// #20
   81370:	790c9401 	strh	w1, [x0, #1610]
   81374:	b0000000 	adrp	x0, 82000 <delays_wait_microsecs+0x68>
   81378:	913d6000 	add	x0, x0, #0xf58
   8137c:	52800041 	mov	w1, #0x2                   	// #2
   81380:	b9068c01 	str	w1, [x0, #1676]
   81384:	b0000000 	adrp	x0, 82000 <delays_wait_microsecs+0x68>
   81388:	913d6000 	add	x0, x0, #0xf58
   8138c:	91200000 	add	x0, x0, #0x800
   81390:	d105c000 	sub	x0, x0, #0x170
   81394:	a9007c1f 	stp	xzr, xzr, [x0]
   81398:	a9017c1f 	stp	xzr, xzr, [x0, #16]
   8139c:	a9027c1f 	stp	xzr, xzr, [x0, #32]
   813a0:	a9037c1f 	stp	xzr, xzr, [x0, #48]
   813a4:	a9047c1f 	stp	xzr, xzr, [x0, #64]
   813a8:	b900501f 	str	wzr, [x0, #80]
   813ac:	b0000000 	adrp	x0, 82000 <delays_wait_microsecs+0x68>
   813b0:	913d6000 	add	x0, x0, #0xf58
   813b4:	52800221 	mov	w1, #0x11                  	// #17
   813b8:	790d2c01 	strh	w1, [x0, #1686]
   813bc:	b0000000 	adrp	x0, 82000 <delays_wait_microsecs+0x68>
   813c0:	913d6000 	add	x0, x0, #0xf58
   813c4:	52800221 	mov	w1, #0x11                  	// #17
   813c8:	790d3401 	strh	w1, [x0, #1690]
   813cc:	b0000000 	adrp	x0, 82000 <delays_wait_microsecs+0x68>
   813d0:	913d6000 	add	x0, x0, #0xf58
   813d4:	52800061 	mov	w1, #0x3                   	// #3
   813d8:	790d3801 	strh	w1, [x0, #1692]
   813dc:	b0000000 	adrp	x0, 82000 <delays_wait_microsecs+0x68>
   813e0:	913d6000 	add	x0, x0, #0xf58
   813e4:	52800281 	mov	w1, #0x14                  	// #20
   813e8:	790d3c01 	strh	w1, [x0, #1694]
   813ec:	b0000000 	adrp	x0, 82000 <delays_wait_microsecs+0x68>
   813f0:	913d6000 	add	x0, x0, #0xf58
   813f4:	52800061 	mov	w1, #0x3                   	// #3
   813f8:	790d4001 	strh	w1, [x0, #1696]
   813fc:	b0000000 	adrp	x0, 82000 <delays_wait_microsecs+0x68>
   81400:	913d6000 	add	x0, x0, #0xf58
   81404:	52800281 	mov	w1, #0x14                  	// #20
   81408:	790d4401 	strh	w1, [x0, #1698]
   8140c:	b0000000 	adrp	x0, 82000 <delays_wait_microsecs+0x68>
   81410:	913d6000 	add	x0, x0, #0xf58
   81414:	52800221 	mov	w1, #0x11                  	// #17
   81418:	790d4801 	strh	w1, [x0, #1700]
   8141c:	b0000000 	adrp	x0, 82000 <delays_wait_microsecs+0x68>
   81420:	913d6000 	add	x0, x0, #0xf58
   81424:	52800281 	mov	w1, #0x14                  	// #20
   81428:	790d4c01 	strh	w1, [x0, #1702]
   8142c:	b0000000 	adrp	x0, 82000 <delays_wait_microsecs+0x68>
   81430:	913d6000 	add	x0, x0, #0xf58
   81434:	52800221 	mov	w1, #0x11                  	// #17
   81438:	790d5001 	strh	w1, [x0, #1704]
   8143c:	b0000000 	adrp	x0, 82000 <delays_wait_microsecs+0x68>
   81440:	913d6000 	add	x0, x0, #0xf58
   81444:	52800281 	mov	w1, #0x14                  	// #20
   81448:	790d5401 	strh	w1, [x0, #1706]
   8144c:	b0000000 	adrp	x0, 82000 <delays_wait_microsecs+0x68>
   81450:	913d6000 	add	x0, x0, #0xf58
   81454:	52800281 	mov	w1, #0x14                  	// #20
   81458:	790d5801 	strh	w1, [x0, #1708]
   8145c:	b0000000 	adrp	x0, 82000 <delays_wait_microsecs+0x68>
   81460:	913d6000 	add	x0, x0, #0xf58
   81464:	52800221 	mov	w1, #0x11                  	// #17
   81468:	790d5c01 	strh	w1, [x0, #1710]
   8146c:	b0000000 	adrp	x0, 82000 <delays_wait_microsecs+0x68>
   81470:	913d6000 	add	x0, x0, #0xf58
   81474:	52800281 	mov	w1, #0x14                  	// #20
   81478:	790d6001 	strh	w1, [x0, #1712]
   8147c:	b0000000 	adrp	x0, 82000 <delays_wait_microsecs+0x68>
   81480:	913d6000 	add	x0, x0, #0xf58
   81484:	52800221 	mov	w1, #0x11                  	// #17
   81488:	790d6401 	strh	w1, [x0, #1714]
   8148c:	b0000000 	adrp	x0, 82000 <delays_wait_microsecs+0x68>
   81490:	913d6000 	add	x0, x0, #0xf58
   81494:	52800281 	mov	w1, #0x14                  	// #20
   81498:	790d6801 	strh	w1, [x0, #1716]
   8149c:	b0000000 	adrp	x0, 82000 <delays_wait_microsecs+0x68>
   814a0:	913d6000 	add	x0, x0, #0xf58
   814a4:	528000a1 	mov	w1, #0x5                   	// #5
   814a8:	b906e001 	str	w1, [x0, #1760]
   814ac:	b0000000 	adrp	x0, 82000 <delays_wait_microsecs+0x68>
   814b0:	913d6000 	add	x0, x0, #0xf58
   814b4:	91200000 	add	x0, x0, #0x800
   814b8:	d1047000 	sub	x0, x0, #0x11c
   814bc:	a9007c1f 	stp	xzr, xzr, [x0]
   814c0:	a9017c1f 	stp	xzr, xzr, [x0, #16]
   814c4:	a9027c1f 	stp	xzr, xzr, [x0, #32]
   814c8:	a9037c1f 	stp	xzr, xzr, [x0, #48]
   814cc:	a9047c1f 	stp	xzr, xzr, [x0, #64]
   814d0:	b900501f 	str	wzr, [x0, #80]
   814d4:	b0000000 	adrp	x0, 82000 <delays_wait_microsecs+0x68>
   814d8:	913d6000 	add	x0, x0, #0xf58
   814dc:	52800141 	mov	w1, #0xa                   	// #10
   814e0:	790dd001 	strh	w1, [x0, #1768]
   814e4:	b0000000 	adrp	x0, 82000 <delays_wait_microsecs+0x68>
   814e8:	913d6000 	add	x0, x0, #0xf58
   814ec:	52800281 	mov	w1, #0x14                  	// #20
   814f0:	790dd401 	strh	w1, [x0, #1770]
   814f4:	b0000000 	adrp	x0, 82000 <delays_wait_microsecs+0x68>
   814f8:	913d6000 	add	x0, x0, #0xf58
   814fc:	52800141 	mov	w1, #0xa                   	// #10
   81500:	790dd801 	strh	w1, [x0, #1772]
   81504:	b0000000 	adrp	x0, 82000 <delays_wait_microsecs+0x68>
   81508:	913d6000 	add	x0, x0, #0xf58
   8150c:	52800281 	mov	w1, #0x14                  	// #20
   81510:	790ddc01 	strh	w1, [x0, #1774]
   81514:	b0000000 	adrp	x0, 82000 <delays_wait_microsecs+0x68>
   81518:	913d6000 	add	x0, x0, #0xf58
   8151c:	52800281 	mov	w1, #0x14                  	// #20
   81520:	790de001 	strh	w1, [x0, #1776]
   81524:	b0000000 	adrp	x0, 82000 <delays_wait_microsecs+0x68>
   81528:	913d6000 	add	x0, x0, #0xf58
   8152c:	52800041 	mov	w1, #0x2                   	// #2
   81530:	b9073401 	str	w1, [x0, #1844]
   81534:	b0000000 	adrp	x0, 82000 <delays_wait_microsecs+0x68>
   81538:	913d6000 	add	x0, x0, #0xf58
   8153c:	91200000 	add	x0, x0, #0x800
   81540:	d1032000 	sub	x0, x0, #0xc8
   81544:	a9007c1f 	stp	xzr, xzr, [x0]
   81548:	a9017c1f 	stp	xzr, xzr, [x0, #16]
   8154c:	a9027c1f 	stp	xzr, xzr, [x0, #32]
   81550:	a9037c1f 	stp	xzr, xzr, [x0, #48]
   81554:	a9047c1f 	stp	xzr, xzr, [x0, #64]
   81558:	b900501f 	str	wzr, [x0, #80]
   8155c:	b0000000 	adrp	x0, 82000 <delays_wait_microsecs+0x68>
   81560:	913d6000 	add	x0, x0, #0xf58
   81564:	528000a1 	mov	w1, #0x5                   	// #5
   81568:	790e7801 	strh	w1, [x0, #1852]
   8156c:	b0000000 	adrp	x0, 82000 <delays_wait_microsecs+0x68>
   81570:	913d6000 	add	x0, x0, #0xf58
   81574:	52800281 	mov	w1, #0x14                  	// #20
   81578:	790e7c01 	strh	w1, [x0, #1854]
   8157c:	b0000000 	adrp	x0, 82000 <delays_wait_microsecs+0x68>
   81580:	913d6000 	add	x0, x0, #0xf58
   81584:	528000a1 	mov	w1, #0x5                   	// #5
   81588:	790e8001 	strh	w1, [x0, #1856]
   8158c:	b0000000 	adrp	x0, 82000 <delays_wait_microsecs+0x68>
   81590:	913d6000 	add	x0, x0, #0xf58
   81594:	52800281 	mov	w1, #0x14                  	// #20
   81598:	790e8401 	strh	w1, [x0, #1858]
   8159c:	b0000000 	adrp	x0, 82000 <delays_wait_microsecs+0x68>
   815a0:	913d6000 	add	x0, x0, #0xf58
   815a4:	52800141 	mov	w1, #0xa                   	// #10
   815a8:	790e8801 	strh	w1, [x0, #1860]
   815ac:	b0000000 	adrp	x0, 82000 <delays_wait_microsecs+0x68>
   815b0:	913d6000 	add	x0, x0, #0xf58
   815b4:	52800141 	mov	w1, #0xa                   	// #10
   815b8:	790e9001 	strh	w1, [x0, #1864]
   815bc:	b0000000 	adrp	x0, 82000 <delays_wait_microsecs+0x68>
   815c0:	913d6000 	add	x0, x0, #0xf58
   815c4:	528001e1 	mov	w1, #0xf                   	// #15
   815c8:	790e9801 	strh	w1, [x0, #1868]
   815cc:	b0000000 	adrp	x0, 82000 <delays_wait_microsecs+0x68>
   815d0:	913d6000 	add	x0, x0, #0xf58
   815d4:	52800281 	mov	w1, #0x14                  	// #20
   815d8:	790e9c01 	strh	w1, [x0, #1870]
   815dc:	b0000000 	adrp	x0, 82000 <delays_wait_microsecs+0x68>
   815e0:	913d6000 	add	x0, x0, #0xf58
   815e4:	528001e1 	mov	w1, #0xf                   	// #15
   815e8:	790ea001 	strh	w1, [x0, #1872]
   815ec:	b0000000 	adrp	x0, 82000 <delays_wait_microsecs+0x68>
   815f0:	913d6000 	add	x0, x0, #0xf58
   815f4:	52800281 	mov	w1, #0x14                  	// #20
   815f8:	790ea401 	strh	w1, [x0, #1874]
   815fc:	b0000000 	adrp	x0, 82000 <delays_wait_microsecs+0x68>
   81600:	913d6000 	add	x0, x0, #0xf58
   81604:	52800281 	mov	w1, #0x14                  	// #20
   81608:	790ea801 	strh	w1, [x0, #1876]
   8160c:	b0000000 	adrp	x0, 82000 <delays_wait_microsecs+0x68>
   81610:	913d6000 	add	x0, x0, #0xf58
   81614:	52800081 	mov	w1, #0x4                   	// #4
   81618:	b9078801 	str	w1, [x0, #1928]
   8161c:	b0000000 	adrp	x0, 82000 <delays_wait_microsecs+0x68>
   81620:	913d6000 	add	x0, x0, #0xf58
   81624:	91200000 	add	x0, x0, #0x800
   81628:	d101d000 	sub	x0, x0, #0x74
   8162c:	a9007c1f 	stp	xzr, xzr, [x0]
   81630:	a9017c1f 	stp	xzr, xzr, [x0, #16]
   81634:	a9027c1f 	stp	xzr, xzr, [x0, #32]
   81638:	a9037c1f 	stp	xzr, xzr, [x0, #48]
   8163c:	a9047c1f 	stp	xzr, xzr, [x0, #64]
   81640:	b900501f 	str	wzr, [x0, #80]
   81644:	b0000000 	adrp	x0, 82000 <delays_wait_microsecs+0x68>
   81648:	913d6000 	add	x0, x0, #0xf58
   8164c:	52800281 	mov	w1, #0x14                  	// #20
   81650:	790f2001 	strh	w1, [x0, #1936]
   81654:	b0000000 	adrp	x0, 82000 <delays_wait_microsecs+0x68>
   81658:	913d6000 	add	x0, x0, #0xf58
   8165c:	52800281 	mov	w1, #0x14                  	// #20
   81660:	790f2401 	strh	w1, [x0, #1938]
   81664:	b0000000 	adrp	x0, 82000 <delays_wait_microsecs+0x68>
   81668:	913d6000 	add	x0, x0, #0xf58
   8166c:	52800281 	mov	w1, #0x14                  	// #20
   81670:	790f2c01 	strh	w1, [x0, #1942]
   81674:	b0000000 	adrp	x0, 82000 <delays_wait_microsecs+0x68>
   81678:	913d6000 	add	x0, x0, #0xf58
   8167c:	52800281 	mov	w1, #0x14                  	// #20
   81680:	790f3001 	strh	w1, [x0, #1944]
   81684:	b0000000 	adrp	x0, 82000 <delays_wait_microsecs+0x68>
   81688:	913d6000 	add	x0, x0, #0xf58
   8168c:	52800041 	mov	w1, #0x2                   	// #2
   81690:	b907dc01 	str	w1, [x0, #2012]
   81694:	b0000000 	adrp	x0, 82000 <delays_wait_microsecs+0x68>
   81698:	913d6000 	add	x0, x0, #0xf58
   8169c:	91200000 	add	x0, x0, #0x800
   816a0:	d1008000 	sub	x0, x0, #0x20
   816a4:	a9007c1f 	stp	xzr, xzr, [x0]
   816a8:	a9017c1f 	stp	xzr, xzr, [x0, #16]
   816ac:	a9027c1f 	stp	xzr, xzr, [x0, #32]
   816b0:	a9037c1f 	stp	xzr, xzr, [x0, #48]
   816b4:	a9047c1f 	stp	xzr, xzr, [x0, #64]
   816b8:	b900501f 	str	wzr, [x0, #80]
   816bc:	b0000000 	adrp	x0, 82000 <delays_wait_microsecs+0x68>
   816c0:	913d6000 	add	x0, x0, #0xf58
   816c4:	52800141 	mov	w1, #0xa                   	// #10
   816c8:	790fc801 	strh	w1, [x0, #2020]
   816cc:	b0000000 	adrp	x0, 82000 <delays_wait_microsecs+0x68>
   816d0:	913d6000 	add	x0, x0, #0xf58
   816d4:	52800141 	mov	w1, #0xa                   	// #10
   816d8:	790fcc01 	strh	w1, [x0, #2022]
   816dc:	b0000000 	adrp	x0, 82000 <delays_wait_microsecs+0x68>
   816e0:	913d6000 	add	x0, x0, #0xf58
   816e4:	52800141 	mov	w1, #0xa                   	// #10
   816e8:	790fd001 	strh	w1, [x0, #2024]
   816ec:	b0000000 	adrp	x0, 82000 <delays_wait_microsecs+0x68>
   816f0:	913d6000 	add	x0, x0, #0xf58
   816f4:	52800141 	mov	w1, #0xa                   	// #10
   816f8:	790fd401 	strh	w1, [x0, #2026]
   816fc:	b0000000 	adrp	x0, 82000 <delays_wait_microsecs+0x68>
   81700:	913d6000 	add	x0, x0, #0xf58
   81704:	52800281 	mov	w1, #0x14                  	// #20
   81708:	790fd801 	strh	w1, [x0, #2028]
   8170c:	b0000000 	adrp	x0, 82000 <delays_wait_microsecs+0x68>
   81710:	913d6000 	add	x0, x0, #0xf58
   81714:	52800141 	mov	w1, #0xa                   	// #10
   81718:	790fe001 	strh	w1, [x0, #2032]
   8171c:	b0000000 	adrp	x0, 82000 <delays_wait_microsecs+0x68>
   81720:	913d6000 	add	x0, x0, #0xf58
   81724:	52800141 	mov	w1, #0xa                   	// #10
   81728:	790fe401 	strh	w1, [x0, #2034]
   8172c:	b0000000 	adrp	x0, 82000 <delays_wait_microsecs+0x68>
   81730:	913d6000 	add	x0, x0, #0xf58
   81734:	52800141 	mov	w1, #0xa                   	// #10
   81738:	790fe801 	strh	w1, [x0, #2036]
   8173c:	b0000000 	adrp	x0, 82000 <delays_wait_microsecs+0x68>
   81740:	913d6000 	add	x0, x0, #0xf58
   81744:	52800281 	mov	w1, #0x14                  	// #20
   81748:	790fec01 	strh	w1, [x0, #2038]
   8174c:	b0000000 	adrp	x0, 82000 <delays_wait_microsecs+0x68>
   81750:	913d6000 	add	x0, x0, #0xf58
   81754:	52800061 	mov	w1, #0x3                   	// #3
   81758:	b9083001 	str	w1, [x0, #2096]
   8175c:	b0000000 	adrp	x0, 82000 <delays_wait_microsecs+0x68>
   81760:	913d6000 	add	x0, x0, #0xf58
   81764:	91200000 	add	x0, x0, #0x800
   81768:	9100d000 	add	x0, x0, #0x34
   8176c:	a9007c1f 	stp	xzr, xzr, [x0]
   81770:	a9017c1f 	stp	xzr, xzr, [x0, #16]
   81774:	a9027c1f 	stp	xzr, xzr, [x0, #32]
   81778:	a9037c1f 	stp	xzr, xzr, [x0, #48]
   8177c:	a9047c1f 	stp	xzr, xzr, [x0, #64]
   81780:	b900501f 	str	wzr, [x0, #80]
   81784:	b0000000 	adrp	x0, 82000 <delays_wait_microsecs+0x68>
   81788:	913d6000 	add	x0, x0, #0xf58
   8178c:	52800281 	mov	w1, #0x14                  	// #20
   81790:	79107001 	strh	w1, [x0, #2104]
   81794:	b0000000 	adrp	x0, 82000 <delays_wait_microsecs+0x68>
   81798:	913d6000 	add	x0, x0, #0xf58
   8179c:	52800281 	mov	w1, #0x14                  	// #20
   817a0:	79107801 	strh	w1, [x0, #2108]
   817a4:	b0000000 	adrp	x0, 82000 <delays_wait_microsecs+0x68>
   817a8:	913d6000 	add	x0, x0, #0xf58
   817ac:	52800281 	mov	w1, #0x14                  	// #20
   817b0:	79108401 	strh	w1, [x0, #2114]
   817b4:	b0000000 	adrp	x0, 82000 <delays_wait_microsecs+0x68>
   817b8:	913d6000 	add	x0, x0, #0xf58
   817bc:	52800281 	mov	w1, #0x14                  	// #20
   817c0:	79108c01 	strh	w1, [x0, #2118]
   817c4:	b0000000 	adrp	x0, 82000 <delays_wait_microsecs+0x68>
   817c8:	913d6000 	add	x0, x0, #0xf58
   817cc:	52800281 	mov	w1, #0x14                  	// #20
   817d0:	79109001 	strh	w1, [x0, #2120]
   817d4:	b0000000 	adrp	x0, 82000 <delays_wait_microsecs+0x68>
   817d8:	913d6000 	add	x0, x0, #0xf58
   817dc:	52800281 	mov	w1, #0x14                  	// #20
   817e0:	79109401 	strh	w1, [x0, #2122]
   817e4:	b0000000 	adrp	x0, 82000 <delays_wait_microsecs+0x68>
   817e8:	913d6000 	add	x0, x0, #0xf58
   817ec:	52800061 	mov	w1, #0x3                   	// #3
   817f0:	b9088401 	str	w1, [x0, #2180]
   817f4:	d503201f 	nop
   817f8:	d65f03c0 	ret

00000000000817fc <hal_cpu_delay>:
   817fc:	a9be7bfd 	stp	x29, x30, [sp, #-32]!
   81800:	910003fd 	mov	x29, sp
   81804:	b9001fe0 	str	w0, [sp, #28]
   81808:	b9401fe1 	ldr	w1, [sp, #28]
   8180c:	52807d00 	mov	w0, #0x3e8                 	// #1000
   81810:	1b007c20 	mul	w0, w1, w0
   81814:	940001e1 	bl	81f98 <delays_wait_microsecs>
   81818:	d503201f 	nop
   8181c:	a8c27bfd 	ldp	x29, x30, [sp], #32
   81820:	d65f03c0 	ret

0000000000081824 <hal_io_serial_init>:
   81824:	a9bf7bfd 	stp	x29, x30, [sp, #-16]!
   81828:	910003fd 	mov	x29, sp
   8182c:	94000319 	bl	82490 <uart0_init>
   81830:	52800000 	mov	w0, #0x0                   	// #0
   81834:	a8c17bfd 	ldp	x29, x30, [sp], #16
   81838:	d65f03c0 	ret

000000000008183c <hal_io_serial_puts>:
   8183c:	a9be7bfd 	stp	x29, x30, [sp, #-32]!
   81840:	910003fd 	mov	x29, sp
   81844:	b9001fe0 	str	w0, [sp, #28]
   81848:	f9000be1 	str	x1, [sp, #16]
   8184c:	14000008 	b	8186c <hal_io_serial_puts+0x30>
   81850:	f9400be0 	ldr	x0, [sp, #16]
   81854:	91000401 	add	x1, x0, #0x1
   81858:	f9000be1 	str	x1, [sp, #16]
   8185c:	39400000 	ldrb	w0, [x0]
   81860:	2a0003e1 	mov	w1, w0
   81864:	b9401fe0 	ldr	w0, [sp, #28]
   81868:	94000008 	bl	81888 <hal_io_serial_putc>
   8186c:	f9400be0 	ldr	x0, [sp, #16]
   81870:	39400000 	ldrb	w0, [x0]
   81874:	7100001f 	cmp	w0, #0x0
   81878:	54fffec1 	b.ne	81850 <hal_io_serial_puts+0x14>  // b.any
   8187c:	d503201f 	nop
   81880:	a8c27bfd 	ldp	x29, x30, [sp], #32
   81884:	d65f03c0 	ret

0000000000081888 <hal_io_serial_putc>:
   81888:	a9be7bfd 	stp	x29, x30, [sp, #-32]!
   8188c:	910003fd 	mov	x29, sp
   81890:	b9001fe0 	str	w0, [sp, #28]
   81894:	39006fe1 	strb	w1, [sp, #27]
   81898:	b9401fe0 	ldr	w0, [sp, #28]
   8189c:	7100001f 	cmp	w0, #0x0
   818a0:	54000080 	b.eq	818b0 <hal_io_serial_putc+0x28>  // b.none
   818a4:	b9401fe0 	ldr	w0, [sp, #28]
   818a8:	7100041f 	cmp	w0, #0x1
   818ac:	14000004 	b	818bc <hal_io_serial_putc+0x34>
   818b0:	39406fe0 	ldrb	w0, [sp, #27]
   818b4:	94000392 	bl	826fc <uart0_putc>
   818b8:	d503201f 	nop
   818bc:	d503201f 	nop
   818c0:	a8c27bfd 	ldp	x29, x30, [sp], #32
   818c4:	d65f03c0 	ret

00000000000818c8 <hal_io_serial_getc>:
   818c8:	a9be7bfd 	stp	x29, x30, [sp, #-32]!
   818cc:	910003fd 	mov	x29, sp
   818d0:	b9001fe0 	str	w0, [sp, #28]
   818d4:	b9401fe0 	ldr	w0, [sp, #28]
   818d8:	7100001f 	cmp	w0, #0x0
   818dc:	540000a0 	b.eq	818f0 <hal_io_serial_getc+0x28>  // b.none
   818e0:	b9401fe0 	ldr	w0, [sp, #28]
   818e4:	7100041f 	cmp	w0, #0x1
   818e8:	540000a0 	b.eq	818fc <hal_io_serial_getc+0x34>  // b.none
   818ec:	14000006 	b	81904 <hal_io_serial_getc+0x3c>
   818f0:	940003ad 	bl	827a4 <uart0_getc>
   818f4:	12001c00 	and	w0, w0, #0xff
   818f8:	14000004 	b	81908 <hal_io_serial_getc+0x40>
   818fc:	52800000 	mov	w0, #0x0                   	// #0
   81900:	14000002 	b	81908 <hal_io_serial_getc+0x40>
   81904:	14000001 	b	81908 <hal_io_serial_getc+0x40>
   81908:	a8c27bfd 	ldp	x29, x30, [sp], #32
   8190c:	d65f03c0 	ret

0000000000081910 <hal_video_init>:
   81910:	a9be7bfd 	stp	x29, x30, [sp, #-32]!
   81914:	910003fd 	mov	x29, sp
   81918:	940001f0 	bl	820d8 <fb_init>
   8191c:	aa0003e1 	mov	x1, x0
   81920:	b0000000 	adrp	x0, 82000 <delays_wait_microsecs+0x68>
   81924:	913ce000 	add	x0, x0, #0xf38
   81928:	f9000001 	str	x1, [x0]
   8192c:	b0000000 	adrp	x0, 82000 <delays_wait_microsecs+0x68>
   81930:	913ce000 	add	x0, x0, #0xf38
   81934:	f9400000 	ldr	x0, [x0]
   81938:	f100001f 	cmp	x0, #0x0
   8193c:	54000061 	b.ne	81948 <hal_video_init+0x38>  // b.any
   81940:	52800020 	mov	w0, #0x1                   	// #1
   81944:	1400001a 	b	819ac <hal_video_init+0x9c>
   81948:	b9001fff 	str	wzr, [sp, #28]
   8194c:	14000014 	b	8199c <hal_video_init+0x8c>
   81950:	b9001bff 	str	wzr, [sp, #24]
   81954:	1400000c 	b	81984 <hal_video_init+0x74>
   81958:	b9401be0 	ldr	w0, [sp, #24]
   8195c:	53165401 	lsl	w1, w0, #10
   81960:	b9401fe0 	ldr	w0, [sp, #28]
   81964:	0b000021 	add	w1, w1, w0
   81968:	d0000000 	adrp	x0, 83000 <characters+0xa8>
   8196c:	911f8000 	add	x0, x0, #0x7e0
   81970:	2a0103e1 	mov	w1, w1
   81974:	b821781f 	str	wzr, [x0, x1, lsl #2]
   81978:	b9401be0 	ldr	w0, [sp, #24]
   8197c:	11000400 	add	w0, w0, #0x1
   81980:	b9001be0 	str	w0, [sp, #24]
   81984:	b9401be0 	ldr	w0, [sp, #24]
   81988:	710bfc1f 	cmp	w0, #0x2ff
   8198c:	54fffe69 	b.ls	81958 <hal_video_init+0x48>  // b.plast
   81990:	b9401fe0 	ldr	w0, [sp, #28]
   81994:	11000400 	add	w0, w0, #0x1
   81998:	b9001fe0 	str	w0, [sp, #28]
   8199c:	b9401fe0 	ldr	w0, [sp, #28]
   819a0:	710ffc1f 	cmp	w0, #0x3ff
   819a4:	54fffd69 	b.ls	81950 <hal_video_init+0x40>  // b.plast
   819a8:	52800000 	mov	w0, #0x0                   	// #0
   819ac:	a8c27bfd 	ldp	x29, x30, [sp], #32
   819b0:	d65f03c0 	ret

00000000000819b4 <point_to_raw>:
   819b4:	d10043ff 	sub	sp, sp, #0x10
   819b8:	b9000be0 	str	w0, [sp, #8]
   819bc:	79c017e0 	ldrsh	w0, [sp, #10]
   819c0:	53165400 	lsl	w0, w0, #10
   819c4:	79c013e1 	ldrsh	w1, [sp, #8]
   819c8:	0b010000 	add	w0, w0, w1
   819cc:	910043ff 	add	sp, sp, #0x10
   819d0:	d65f03c0 	ret

00000000000819d4 <x_y_to_raw>:
   819d4:	d10043ff 	sub	sp, sp, #0x10
   819d8:	79001fe0 	strh	w0, [sp, #14]
   819dc:	79001be1 	strh	w1, [sp, #12]
   819e0:	79c01be0 	ldrsh	w0, [sp, #12]
   819e4:	53165401 	lsl	w1, w0, #10
   819e8:	79c01fe0 	ldrsh	w0, [sp, #14]
   819ec:	0b000020 	add	w0, w1, w0
   819f0:	910043ff 	add	sp, sp, #0x10
   819f4:	d65f03c0 	ret

00000000000819f8 <abs>:
   819f8:	d10043ff 	sub	sp, sp, #0x10
   819fc:	bd000fe0 	str	s0, [sp, #12]
   81a00:	bd400fe0 	ldr	s0, [sp, #12]
   81a04:	1e202018 	fcmpe	s0, #0.0
   81a08:	540000a5 	b.pl	81a1c <abs+0x24>  // b.nfrst
   81a0c:	bd400fe0 	ldr	s0, [sp, #12]
   81a10:	1e214000 	fneg	s0, s0
   81a14:	5ea1b800 	fcvtzs	s0, s0
   81a18:	14000003 	b	81a24 <abs+0x2c>
   81a1c:	bd400fe0 	ldr	s0, [sp, #12]
   81a20:	5ea1b800 	fcvtzs	s0, s0
   81a24:	1e260000 	fmov	w0, s0
   81a28:	910043ff 	add	sp, sp, #0x10
   81a2c:	d65f03c0 	ret

0000000000081a30 <sign>:
   81a30:	d10043ff 	sub	sp, sp, #0x10
   81a34:	b9000fe0 	str	w0, [sp, #12]
   81a38:	b9400fe0 	ldr	w0, [sp, #12]
   81a3c:	7100001f 	cmp	w0, #0x0
   81a40:	5400006a 	b.ge	81a4c <sign+0x1c>  // b.tcont
   81a44:	12800000 	mov	w0, #0xffffffff            	// #-1
   81a48:	14000002 	b	81a50 <sign+0x20>
   81a4c:	52800020 	mov	w0, #0x1                   	// #1
   81a50:	910043ff 	add	sp, sp, #0x10
   81a54:	d65f03c0 	ret

0000000000081a58 <drawShape>:
   81a58:	a9bc7bfd 	stp	x29, x30, [sp, #-64]!
   81a5c:	910003fd 	mov	x29, sp
   81a60:	a90153f3 	stp	x19, x20, [sp, #16]
   81a64:	f90017e0 	str	x0, [sp, #40]
   81a68:	3900ffff 	strb	wzr, [sp, #63]
   81a6c:	14000043 	b	81b78 <drawShape+0x120>
   81a70:	3900fbff 	strb	wzr, [sp, #62]
   81a74:	1400003b 	b	81b60 <drawShape+0x108>
   81a78:	3900f7ff 	strb	wzr, [sp, #61]
   81a7c:	14000033 	b	81b48 <drawShape+0xf0>
   81a80:	3940fff3 	ldrb	w19, [sp, #63]
   81a84:	3940ffe0 	ldrb	w0, [sp, #63]
   81a88:	f94017e1 	ldr	x1, [sp, #40]
   81a8c:	93407c00 	sxtw	x0, w0
   81a90:	d37df000 	lsl	x0, x0, #3
   81a94:	8b000020 	add	x0, x1, x0
   81a98:	79c00000 	ldrsh	w0, [x0]
   81a9c:	12003c00 	and	w0, w0, #0xffff
   81aa0:	531e3400 	ubfiz	w0, w0, #2, #14
   81aa4:	12003c01 	and	w1, w0, #0xffff
   81aa8:	3940fbe0 	ldrb	w0, [sp, #62]
   81aac:	12003c00 	and	w0, w0, #0xffff
   81ab0:	0b000020 	add	w0, w1, w0
   81ab4:	12003c00 	and	w0, w0, #0xffff
   81ab8:	13003c02 	sxth	w2, w0
   81abc:	3940ffe0 	ldrb	w0, [sp, #63]
   81ac0:	f94017e1 	ldr	x1, [sp, #40]
   81ac4:	93407c00 	sxtw	x0, w0
   81ac8:	d37df000 	lsl	x0, x0, #3
   81acc:	8b000020 	add	x0, x1, x0
   81ad0:	79c00400 	ldrsh	w0, [x0, #2]
   81ad4:	12003c00 	and	w0, w0, #0xffff
   81ad8:	531e3400 	ubfiz	w0, w0, #2, #14
   81adc:	12003c01 	and	w1, w0, #0xffff
   81ae0:	3940f7e0 	ldrb	w0, [sp, #61]
   81ae4:	12003c00 	and	w0, w0, #0xffff
   81ae8:	0b000020 	add	w0, w1, w0
   81aec:	12003c00 	and	w0, w0, #0xffff
   81af0:	13003c00 	sxth	w0, w0
   81af4:	2a0003e1 	mov	w1, w0
   81af8:	2a0203e0 	mov	w0, w2
   81afc:	97ffffb6 	bl	819d4 <x_y_to_raw>
   81b00:	2a0003f4 	mov	w20, w0
   81b04:	f94017e0 	ldr	x0, [sp, #40]
   81b08:	91180000 	add	x0, x0, #0x600
   81b0c:	b8502000 	ldur	w0, [x0, #-254]
   81b10:	97ffffa9 	bl	819b4 <point_to_raw>
   81b14:	0b000283 	add	w3, w20, w0
   81b18:	f94017e1 	ldr	x1, [sp, #40]
   81b1c:	93407e60 	sxtw	x0, w19
   81b20:	d37df000 	lsl	x0, x0, #3
   81b24:	8b000020 	add	x0, x1, x0
   81b28:	b9400402 	ldr	w2, [x0, #4]
   81b2c:	d0000000 	adrp	x0, 83000 <characters+0xa8>
   81b30:	911f8000 	add	x0, x0, #0x7e0
   81b34:	2a0303e1 	mov	w1, w3
   81b38:	b8217802 	str	w2, [x0, x1, lsl #2]
   81b3c:	3940f7e0 	ldrb	w0, [sp, #61]
   81b40:	11000400 	add	w0, w0, #0x1
   81b44:	3900f7e0 	strb	w0, [sp, #61]
   81b48:	3940f7e0 	ldrb	w0, [sp, #61]
   81b4c:	71000c1f 	cmp	w0, #0x3
   81b50:	54fff989 	b.ls	81a80 <drawShape+0x28>  // b.plast
   81b54:	3940fbe0 	ldrb	w0, [sp, #62]
   81b58:	11000400 	add	w0, w0, #0x1
   81b5c:	3900fbe0 	strb	w0, [sp, #62]
   81b60:	3940fbe0 	ldrb	w0, [sp, #62]
   81b64:	71000c1f 	cmp	w0, #0x3
   81b68:	54fff889 	b.ls	81a78 <drawShape+0x20>  // b.plast
   81b6c:	3940ffe0 	ldrb	w0, [sp, #63]
   81b70:	11000400 	add	w0, w0, #0x1
   81b74:	3900ffe0 	strb	w0, [sp, #63]
   81b78:	f94017e0 	ldr	x0, [sp, #40]
   81b7c:	39540000 	ldrb	w0, [x0, #1280]
   81b80:	3940ffe1 	ldrb	w1, [sp, #63]
   81b84:	6b00003f 	cmp	w1, w0
   81b88:	54fff743 	b.cc	81a70 <drawShape+0x18>  // b.lo, b.ul, b.last
   81b8c:	d503201f 	nop
   81b90:	a94153f3 	ldp	x19, x20, [sp, #16]
   81b94:	a8c47bfd 	ldp	x29, x30, [sp], #64
   81b98:	d65f03c0 	ret

0000000000081b9c <clearDrawScreen>:
   81b9c:	d10043ff 	sub	sp, sp, #0x10
   81ba0:	b9000fff 	str	wzr, [sp, #12]
   81ba4:	14000014 	b	81bf4 <clearDrawScreen+0x58>
   81ba8:	b9000bff 	str	wzr, [sp, #8]
   81bac:	1400000c 	b	81bdc <clearDrawScreen+0x40>
   81bb0:	b9400be0 	ldr	w0, [sp, #8]
   81bb4:	53165401 	lsl	w1, w0, #10
   81bb8:	b9400fe0 	ldr	w0, [sp, #12]
   81bbc:	0b000021 	add	w1, w1, w0
   81bc0:	d0000000 	adrp	x0, 83000 <characters+0xa8>
   81bc4:	911f8000 	add	x0, x0, #0x7e0
   81bc8:	2a0103e1 	mov	w1, w1
   81bcc:	b821781f 	str	wzr, [x0, x1, lsl #2]
   81bd0:	b9400be0 	ldr	w0, [sp, #8]
   81bd4:	11000400 	add	w0, w0, #0x1
   81bd8:	b9000be0 	str	w0, [sp, #8]
   81bdc:	b9400be0 	ldr	w0, [sp, #8]
   81be0:	710bfc1f 	cmp	w0, #0x2ff
   81be4:	54fffe69 	b.ls	81bb0 <clearDrawScreen+0x14>  // b.plast
   81be8:	b9400fe0 	ldr	w0, [sp, #12]
   81bec:	11000400 	add	w0, w0, #0x1
   81bf0:	b9000fe0 	str	w0, [sp, #12]
   81bf4:	b9400fe0 	ldr	w0, [sp, #12]
   81bf8:	710ffc1f 	cmp	w0, #0x3ff
   81bfc:	54fffd69 	b.ls	81ba8 <clearDrawScreen+0xc>  // b.plast
   81c00:	d503201f 	nop
   81c04:	910043ff 	add	sp, sp, #0x10
   81c08:	d65f03c0 	ret

0000000000081c0c <draw>:
   81c0c:	d10043ff 	sub	sp, sp, #0x10
   81c10:	52803840 	mov	w0, #0x1c2                 	// #450
   81c14:	b9000fe0 	str	w0, [sp, #12]
   81c18:	14000028 	b	81cb8 <draw+0xac>
   81c1c:	528044c0 	mov	w0, #0x226                 	// #550
   81c20:	b9000be0 	str	w0, [sp, #8]
   81c24:	1400001f 	b	81ca0 <draw+0x94>
   81c28:	b9400be0 	ldr	w0, [sp, #8]
   81c2c:	53165401 	lsl	w1, w0, #10
   81c30:	b9400fe0 	ldr	w0, [sp, #12]
   81c34:	0b000023 	add	w3, w1, w0
   81c38:	b0000000 	adrp	x0, 82000 <delays_wait_microsecs+0x68>
   81c3c:	913ce000 	add	x0, x0, #0xf38
   81c40:	f9400001 	ldr	x1, [x0]
   81c44:	b9400be0 	ldr	w0, [sp, #8]
   81c48:	53165400 	lsl	w0, w0, #10
   81c4c:	2a0003e2 	mov	w2, w0
   81c50:	b9400fe0 	ldr	w0, [sp, #12]
   81c54:	8b000040 	add	x0, x2, x0
   81c58:	d37ef400 	lsl	x0, x0, #2
   81c5c:	8b000020 	add	x0, x1, x0
   81c60:	d0000001 	adrp	x1, 83000 <characters+0xa8>
   81c64:	911f8021 	add	x1, x1, #0x7e0
   81c68:	2a0303e2 	mov	w2, w3
   81c6c:	b8627821 	ldr	w1, [x1, x2, lsl #2]
   81c70:	b9000001 	str	w1, [x0]
   81c74:	b9400be0 	ldr	w0, [sp, #8]
   81c78:	53165401 	lsl	w1, w0, #10
   81c7c:	b9400fe0 	ldr	w0, [sp, #12]
   81c80:	0b000021 	add	w1, w1, w0
   81c84:	d0000000 	adrp	x0, 83000 <characters+0xa8>
   81c88:	911f8000 	add	x0, x0, #0x7e0
   81c8c:	2a0103e1 	mov	w1, w1
   81c90:	b821781f 	str	wzr, [x0, x1, lsl #2]
   81c94:	b9400be0 	ldr	w0, [sp, #8]
   81c98:	11000400 	add	w0, w0, #0x1
   81c9c:	b9000be0 	str	w0, [sp, #8]
   81ca0:	b9400be0 	ldr	w0, [sp, #8]
   81ca4:	710bfc1f 	cmp	w0, #0x2ff
   81ca8:	54fffc09 	b.ls	81c28 <draw+0x1c>  // b.plast
   81cac:	b9400fe0 	ldr	w0, [sp, #12]
   81cb0:	11000400 	add	w0, w0, #0x1
   81cb4:	b9000fe0 	str	w0, [sp, #12]
   81cb8:	b9400fe0 	ldr	w0, [sp, #12]
   81cbc:	710ffc1f 	cmp	w0, #0x3ff
   81cc0:	54fffae9 	b.ls	81c1c <draw+0x10>  // b.plast
   81cc4:	d503201f 	nop
   81cc8:	910043ff 	add	sp, sp, #0x10
   81ccc:	d65f03c0 	ret

0000000000081cd0 <drawLine>:
   81cd0:	a9bc7bfd 	stp	x29, x30, [sp, #-64]!
   81cd4:	910003fd 	mov	x29, sp
   81cd8:	f9000bf3 	str	x19, [sp, #16]
   81cdc:	b9002be0 	str	w0, [sp, #40]
   81ce0:	b90023e1 	str	w1, [sp, #32]
   81ce4:	b90027e2 	str	w2, [sp, #36]
   81ce8:	79c043e0 	ldrsh	w0, [sp, #32]
   81cec:	2a0003e1 	mov	w1, w0
   81cf0:	79c053e0 	ldrsh	w0, [sp, #40]
   81cf4:	4b000020 	sub	w0, w1, w0
   81cf8:	1e220000 	scvtf	s0, w0
   81cfc:	bd003fe0 	str	s0, [sp, #60]
   81d00:	79c047e0 	ldrsh	w0, [sp, #34]
   81d04:	2a0003e1 	mov	w1, w0
   81d08:	79c057e0 	ldrsh	w0, [sp, #42]
   81d0c:	4b000020 	sub	w0, w1, w0
   81d10:	1e220000 	scvtf	s0, w0
   81d14:	bd003be0 	str	s0, [sp, #56]
   81d18:	bd403fe0 	ldr	s0, [sp, #60]
   81d1c:	1e202008 	fcmp	s0, #0.0
   81d20:	54000080 	b.eq	81d30 <drawLine+0x60>  // b.none
   81d24:	bd403be0 	ldr	s0, [sp, #56]
   81d28:	1e202008 	fcmp	s0, #0.0
   81d2c:	54000241 	b.ne	81d74 <drawLine+0xa4>  // b.any
   81d30:	bd403fe0 	ldr	s0, [sp, #60]
   81d34:	1e202008 	fcmp	s0, #0.0
   81d38:	54000101 	b.ne	81d58 <drawLine+0x88>  // b.any
   81d3c:	bd403be0 	ldr	s0, [sp, #56]
   81d40:	97ffff2e 	bl	819f8 <abs>
   81d44:	1e220000 	scvtf	s0, w0
   81d48:	bd403be1 	ldr	s1, [sp, #56]
   81d4c:	1e201820 	fdiv	s0, s1, s0
   81d50:	bd003be0 	str	s0, [sp, #56]
   81d54:	14000028 	b	81df4 <drawLine+0x124>
   81d58:	bd403fe0 	ldr	s0, [sp, #60]
   81d5c:	97ffff27 	bl	819f8 <abs>
   81d60:	1e220000 	scvtf	s0, w0
   81d64:	bd403fe1 	ldr	s1, [sp, #60]
   81d68:	1e201820 	fdiv	s0, s1, s0
   81d6c:	bd003fe0 	str	s0, [sp, #60]
   81d70:	14000021 	b	81df4 <drawLine+0x124>
   81d74:	bd403fe0 	ldr	s0, [sp, #60]
   81d78:	97ffff20 	bl	819f8 <abs>
   81d7c:	2a0003f3 	mov	w19, w0
   81d80:	bd403be0 	ldr	s0, [sp, #56]
   81d84:	97ffff1d 	bl	819f8 <abs>
   81d88:	6b00027f 	cmp	w19, w0
   81d8c:	540001cd 	b.le	81dc4 <drawLine+0xf4>
   81d90:	bd403fe0 	ldr	s0, [sp, #60]
   81d94:	97ffff19 	bl	819f8 <abs>
   81d98:	1e220000 	scvtf	s0, w0
   81d9c:	bd403be1 	ldr	s1, [sp, #56]
   81da0:	1e201820 	fdiv	s0, s1, s0
   81da4:	bd003be0 	str	s0, [sp, #56]
   81da8:	bd403fe0 	ldr	s0, [sp, #60]
   81dac:	97ffff13 	bl	819f8 <abs>
   81db0:	1e220000 	scvtf	s0, w0
   81db4:	bd403fe1 	ldr	s1, [sp, #60]
   81db8:	1e201820 	fdiv	s0, s1, s0
   81dbc:	bd003fe0 	str	s0, [sp, #60]
   81dc0:	1400000d 	b	81df4 <drawLine+0x124>
   81dc4:	bd403be0 	ldr	s0, [sp, #56]
   81dc8:	97ffff0c 	bl	819f8 <abs>
   81dcc:	1e220000 	scvtf	s0, w0
   81dd0:	bd403fe1 	ldr	s1, [sp, #60]
   81dd4:	1e201820 	fdiv	s0, s1, s0
   81dd8:	bd003fe0 	str	s0, [sp, #60]
   81ddc:	bd403be0 	ldr	s0, [sp, #56]
   81de0:	97ffff06 	bl	819f8 <abs>
   81de4:	1e220000 	scvtf	s0, w0
   81de8:	bd403be1 	ldr	s1, [sp, #56]
   81dec:	1e201820 	fdiv	s0, s1, s0
   81df0:	bd003be0 	str	s0, [sp, #56]
   81df4:	b9402be0 	ldr	w0, [sp, #40]
   81df8:	97fffeef 	bl	819b4 <point_to_raw>
   81dfc:	2a0003e1 	mov	w1, w0
   81e00:	b0000000 	adrp	x0, 82000 <delays_wait_microsecs+0x68>
   81e04:	913ca000 	add	x0, x0, #0xf28
   81e08:	b9400000 	ldr	w0, [x0]
   81e0c:	0b000020 	add	w0, w1, w0
   81e10:	b94027e1 	ldr	w1, [sp, #36]
   81e14:	94000044 	bl	81f24 <put_pixel_raw>
   81e18:	14000018 	b	81e78 <drawLine+0x1a8>
   81e1c:	79c053e0 	ldrsh	w0, [sp, #40]
   81e20:	1e220001 	scvtf	s1, w0
   81e24:	bd403fe0 	ldr	s0, [sp, #60]
   81e28:	1e202820 	fadd	s0, s1, s0
   81e2c:	1e380000 	fcvtzs	w0, s0
   81e30:	13003c00 	sxth	w0, w0
   81e34:	790053e0 	strh	w0, [sp, #40]
   81e38:	79c057e0 	ldrsh	w0, [sp, #42]
   81e3c:	1e220001 	scvtf	s1, w0
   81e40:	bd403be0 	ldr	s0, [sp, #56]
   81e44:	1e202820 	fadd	s0, s1, s0
   81e48:	1e380000 	fcvtzs	w0, s0
   81e4c:	13003c00 	sxth	w0, w0
   81e50:	790057e0 	strh	w0, [sp, #42]
   81e54:	b9402be0 	ldr	w0, [sp, #40]
   81e58:	97fffed7 	bl	819b4 <point_to_raw>
   81e5c:	2a0003e1 	mov	w1, w0
   81e60:	b0000000 	adrp	x0, 82000 <delays_wait_microsecs+0x68>
   81e64:	913ca000 	add	x0, x0, #0xf28
   81e68:	b9400000 	ldr	w0, [x0]
   81e6c:	0b000020 	add	w0, w1, w0
   81e70:	b94027e1 	ldr	w1, [sp, #36]
   81e74:	9400002c 	bl	81f24 <put_pixel_raw>
   81e78:	79c053e1 	ldrsh	w1, [sp, #40]
   81e7c:	79c043e0 	ldrsh	w0, [sp, #32]
   81e80:	6b00003f 	cmp	w1, w0
   81e84:	54fffcc1 	b.ne	81e1c <drawLine+0x14c>  // b.any
   81e88:	79c057e1 	ldrsh	w1, [sp, #42]
   81e8c:	79c047e0 	ldrsh	w0, [sp, #34]
   81e90:	6b00003f 	cmp	w1, w0
   81e94:	54fffc41 	b.ne	81e1c <drawLine+0x14c>  // b.any
   81e98:	d503201f 	nop
   81e9c:	f9400bf3 	ldr	x19, [sp, #16]
   81ea0:	a8c47bfd 	ldp	x29, x30, [sp], #64
   81ea4:	d65f03c0 	ret

0000000000081ea8 <hal_video_clear>:
   81ea8:	a9be7bfd 	stp	x29, x30, [sp, #-32]!
   81eac:	910003fd 	mov	x29, sp
   81eb0:	b9001fff 	str	wzr, [sp, #28]
   81eb4:	14000012 	b	81efc <hal_video_clear+0x54>
   81eb8:	b9001bff 	str	wzr, [sp, #24]
   81ebc:	1400000a 	b	81ee4 <hal_video_clear+0x3c>
   81ec0:	b9401be0 	ldr	w0, [sp, #24]
   81ec4:	53165401 	lsl	w1, w0, #10
   81ec8:	b9401fe0 	ldr	w0, [sp, #28]
   81ecc:	0b000020 	add	w0, w1, w0
   81ed0:	52800001 	mov	w1, #0x0                   	// #0
   81ed4:	94000014 	bl	81f24 <put_pixel_raw>
   81ed8:	b9401be0 	ldr	w0, [sp, #24]
   81edc:	11000400 	add	w0, w0, #0x1
   81ee0:	b9001be0 	str	w0, [sp, #24]
   81ee4:	b9401be0 	ldr	w0, [sp, #24]
   81ee8:	710bfc1f 	cmp	w0, #0x2ff
   81eec:	54fffea9 	b.ls	81ec0 <hal_video_clear+0x18>  // b.plast
   81ef0:	b9401fe0 	ldr	w0, [sp, #28]
   81ef4:	11000400 	add	w0, w0, #0x1
   81ef8:	b9001fe0 	str	w0, [sp, #28]
   81efc:	b9401fe0 	ldr	w0, [sp, #28]
   81f00:	710ffc1f 	cmp	w0, #0x3ff
   81f04:	54fffda9 	b.ls	81eb8 <hal_video_clear+0x10>  // b.plast
   81f08:	b0000000 	adrp	x0, 82000 <delays_wait_microsecs+0x68>
   81f0c:	913ca000 	add	x0, x0, #0xf28
   81f10:	528280a1 	mov	w1, #0x1405                	// #5125
   81f14:	b9000001 	str	w1, [x0]
   81f18:	d503201f 	nop
   81f1c:	a8c27bfd 	ldp	x29, x30, [sp], #32
   81f20:	d65f03c0 	ret

0000000000081f24 <put_pixel_raw>:
   81f24:	d10043ff 	sub	sp, sp, #0x10
   81f28:	b9000fe0 	str	w0, [sp, #12]
   81f2c:	b9000be1 	str	w1, [sp, #8]
   81f30:	b0000000 	adrp	x0, 82000 <delays_wait_microsecs+0x68>
   81f34:	913ce000 	add	x0, x0, #0xf38
   81f38:	f9400001 	ldr	x1, [x0]
   81f3c:	b9400fe0 	ldr	w0, [sp, #12]
   81f40:	d37ef400 	lsl	x0, x0, #2
   81f44:	8b000020 	add	x0, x1, x0
   81f48:	b9400be1 	ldr	w1, [sp, #8]
   81f4c:	b9000001 	str	w1, [x0]
   81f50:	d503201f 	nop
   81f54:	910043ff 	add	sp, sp, #0x10
   81f58:	d65f03c0 	ret

0000000000081f5c <delays_wait_cycles>:
   81f5c:	d10043ff 	sub	sp, sp, #0x10
   81f60:	b9000fe0 	str	w0, [sp, #12]
   81f64:	b9400fe0 	ldr	w0, [sp, #12]
   81f68:	7100001f 	cmp	w0, #0x0
   81f6c:	54000100 	b.eq	81f8c <delays_wait_cycles+0x30>  // b.none
   81f70:	14000002 	b	81f78 <delays_wait_cycles+0x1c>
   81f74:	d503201f 	nop
   81f78:	b9400fe0 	ldr	w0, [sp, #12]
   81f7c:	51000401 	sub	w1, w0, #0x1
   81f80:	b9000fe1 	str	w1, [sp, #12]
   81f84:	7100001f 	cmp	w0, #0x0
   81f88:	54ffff61 	b.ne	81f74 <delays_wait_cycles+0x18>  // b.any
   81f8c:	d503201f 	nop
   81f90:	910043ff 	add	sp, sp, #0x10
   81f94:	d65f03c0 	ret

0000000000081f98 <delays_wait_microsecs>:
   81f98:	a9be53f3 	stp	x19, x20, [sp, #-32]!
   81f9c:	b9001fe0 	str	w0, [sp, #28]
   81fa0:	d53be000 	mrs	x0, cntfrq_el0
   81fa4:	aa0003f4 	mov	x20, x0
   81fa8:	d53be020 	mrs	x0, cntpct_el0
   81fac:	aa0003f3 	mov	x19, x0
   81fb0:	d343fe81 	lsr	x1, x20, #3
   81fb4:	d29ef9e0 	mov	x0, #0xf7cf                	// #63439
   81fb8:	f2bc6a60 	movk	x0, #0xe353, lsl #16
   81fbc:	f2d374a0 	movk	x0, #0x9ba5, lsl #32
   81fc0:	f2e41880 	movk	x0, #0x20c4, lsl #48
   81fc4:	9bc07c20 	umulh	x0, x1, x0
   81fc8:	d344fc01 	lsr	x1, x0, #4
   81fcc:	b9401fe0 	ldr	w0, [sp, #28]
   81fd0:	9b007c20 	mul	x0, x1, x0
   81fd4:	d343fc01 	lsr	x1, x0, #3
   81fd8:	d29ef9e0 	mov	x0, #0xf7cf                	// #63439
   81fdc:	f2bc6a60 	movk	x0, #0xe353, lsl #16
   81fe0:	f2d374a0 	movk	x0, #0x9ba5, lsl #32
   81fe4:	f2e41880 	movk	x0, #0x20c4, lsl #48
   81fe8:	9bc07c20 	umulh	x0, x1, x0
   81fec:	d344fc00 	lsr	x0, x0, #4
   81ff0:	8b000273 	add	x19, x19, x0
   81ff4:	d53be020 	mrs	x0, cntpct_el0
   81ff8:	aa0003f4 	mov	x20, x0
   81ffc:	eb13029f 	cmp	x20, x19
   82000:	54ffffa3 	b.cc	81ff4 <delays_wait_microsecs+0x5c>  // b.lo, b.ul, b.last
   82004:	d503201f 	nop
   82008:	a8c253f3 	ldp	x19, x20, [sp], #32
   8200c:	d65f03c0 	ret

0000000000082010 <get_system_timer>:
   82010:	d10043ff 	sub	sp, sp, #0x10
   82014:	12800000 	mov	w0, #0xffffffff            	// #-1
   82018:	b9000fe0 	str	w0, [sp, #12]
   8201c:	d2860100 	mov	x0, #0x3008                	// #12296
   82020:	f2a7e000 	movk	x0, #0x3f00, lsl #16
   82024:	b9400000 	ldr	w0, [x0]
   82028:	b9000fe0 	str	w0, [sp, #12]
   8202c:	d2860080 	mov	x0, #0x3004                	// #12292
   82030:	f2a7e000 	movk	x0, #0x3f00, lsl #16
   82034:	b9400000 	ldr	w0, [x0]
   82038:	b9000be0 	str	w0, [sp, #8]
   8203c:	d2860100 	mov	x0, #0x3008                	// #12296
   82040:	f2a7e000 	movk	x0, #0x3f00, lsl #16
   82044:	b9400000 	ldr	w0, [x0]
   82048:	b9400fe1 	ldr	w1, [sp, #12]
   8204c:	6b00003f 	cmp	w1, w0
   82050:	54000120 	b.eq	82074 <get_system_timer+0x64>  // b.none
   82054:	d2860100 	mov	x0, #0x3008                	// #12296
   82058:	f2a7e000 	movk	x0, #0x3f00, lsl #16
   8205c:	b9400000 	ldr	w0, [x0]
   82060:	b9000fe0 	str	w0, [sp, #12]
   82064:	d2860080 	mov	x0, #0x3004                	// #12292
   82068:	f2a7e000 	movk	x0, #0x3f00, lsl #16
   8206c:	b9400000 	ldr	w0, [x0]
   82070:	b9000be0 	str	w0, [sp, #8]
   82074:	b9400fe0 	ldr	w0, [sp, #12]
   82078:	d3607c01 	lsl	x1, x0, #32
   8207c:	b9400be0 	ldr	w0, [sp, #8]
   82080:	aa000020 	orr	x0, x1, x0
   82084:	910043ff 	add	sp, sp, #0x10
   82088:	d65f03c0 	ret

000000000008208c <delays_wait_msec_st>:
   8208c:	a9bd7bfd 	stp	x29, x30, [sp, #-48]!
   82090:	910003fd 	mov	x29, sp
   82094:	b9001fe0 	str	w0, [sp, #28]
   82098:	97ffffde 	bl	82010 <get_system_timer>
   8209c:	f90017e0 	str	x0, [sp, #40]
   820a0:	f94017e0 	ldr	x0, [sp, #40]
   820a4:	f100001f 	cmp	x0, #0x0
   820a8:	54000120 	b.eq	820cc <delays_wait_msec_st+0x40>  // b.none
   820ac:	d503201f 	nop
   820b0:	97ffffd8 	bl	82010 <get_system_timer>
   820b4:	aa0003e2 	mov	x2, x0
   820b8:	b9401fe1 	ldr	w1, [sp, #28]
   820bc:	f94017e0 	ldr	x0, [sp, #40]
   820c0:	8b000020 	add	x0, x1, x0
   820c4:	eb00005f 	cmp	x2, x0
   820c8:	54ffff43 	b.cc	820b0 <delays_wait_msec_st+0x24>  // b.lo, b.ul, b.last
   820cc:	d503201f 	nop
   820d0:	a8c37bfd 	ldp	x29, x30, [sp], #48
   820d4:	d65f03c0 	ret

00000000000820d8 <fb_init>:
   820d8:	a9bf7bfd 	stp	x29, x30, [sp, #-16]!
   820dc:	910003fd 	mov	x29, sp
   820e0:	b0001800 	adrp	x0, 383000 <drawingScreen+0x2ff820>
   820e4:	911f8000 	add	x0, x0, #0x7e0
   820e8:	52801181 	mov	w1, #0x8c                  	// #140
   820ec:	b9000001 	str	w1, [x0]
   820f0:	b0001800 	adrp	x0, 383000 <drawingScreen+0x2ff820>
   820f4:	911f8000 	add	x0, x0, #0x7e0
   820f8:	b900041f 	str	wzr, [x0, #4]
   820fc:	b0001800 	adrp	x0, 383000 <drawingScreen+0x2ff820>
   82100:	911f8000 	add	x0, x0, #0x7e0
   82104:	52900061 	mov	w1, #0x8003                	// #32771
   82108:	72a00081 	movk	w1, #0x4, lsl #16
   8210c:	b9000801 	str	w1, [x0, #8]
   82110:	b0001800 	adrp	x0, 383000 <drawingScreen+0x2ff820>
   82114:	911f8000 	add	x0, x0, #0x7e0
   82118:	52800101 	mov	w1, #0x8                   	// #8
   8211c:	b9000c01 	str	w1, [x0, #12]
   82120:	b0001800 	adrp	x0, 383000 <drawingScreen+0x2ff820>
   82124:	911f8000 	add	x0, x0, #0x7e0
   82128:	52800101 	mov	w1, #0x8                   	// #8
   8212c:	b9001001 	str	w1, [x0, #16]
   82130:	b0001800 	adrp	x0, 383000 <drawingScreen+0x2ff820>
   82134:	911f8000 	add	x0, x0, #0x7e0
   82138:	52808001 	mov	w1, #0x400                 	// #1024
   8213c:	b9001401 	str	w1, [x0, #20]
   82140:	b0001800 	adrp	x0, 383000 <drawingScreen+0x2ff820>
   82144:	911f8000 	add	x0, x0, #0x7e0
   82148:	52806001 	mov	w1, #0x300                 	// #768
   8214c:	b9001801 	str	w1, [x0, #24]
   82150:	b0001800 	adrp	x0, 383000 <drawingScreen+0x2ff820>
   82154:	911f8000 	add	x0, x0, #0x7e0
   82158:	52900081 	mov	w1, #0x8004                	// #32772
   8215c:	72a00081 	movk	w1, #0x4, lsl #16
   82160:	b9001c01 	str	w1, [x0, #28]
   82164:	b0001800 	adrp	x0, 383000 <drawingScreen+0x2ff820>
   82168:	911f8000 	add	x0, x0, #0x7e0
   8216c:	52800101 	mov	w1, #0x8                   	// #8
   82170:	b9002001 	str	w1, [x0, #32]
   82174:	b0001800 	adrp	x0, 383000 <drawingScreen+0x2ff820>
   82178:	911f8000 	add	x0, x0, #0x7e0
   8217c:	52800101 	mov	w1, #0x8                   	// #8
   82180:	b9002401 	str	w1, [x0, #36]
   82184:	b0001800 	adrp	x0, 383000 <drawingScreen+0x2ff820>
   82188:	911f8000 	add	x0, x0, #0x7e0
   8218c:	52808001 	mov	w1, #0x400                 	// #1024
   82190:	b9002801 	str	w1, [x0, #40]
   82194:	b0001800 	adrp	x0, 383000 <drawingScreen+0x2ff820>
   82198:	911f8000 	add	x0, x0, #0x7e0
   8219c:	52806001 	mov	w1, #0x300                 	// #768
   821a0:	b9002c01 	str	w1, [x0, #44]
   821a4:	b0001800 	adrp	x0, 383000 <drawingScreen+0x2ff820>
   821a8:	911f8000 	add	x0, x0, #0x7e0
   821ac:	52900121 	mov	w1, #0x8009                	// #32777
   821b0:	72a00081 	movk	w1, #0x4, lsl #16
   821b4:	b9003001 	str	w1, [x0, #48]
   821b8:	b0001800 	adrp	x0, 383000 <drawingScreen+0x2ff820>
   821bc:	911f8000 	add	x0, x0, #0x7e0
   821c0:	52800101 	mov	w1, #0x8                   	// #8
   821c4:	b9003401 	str	w1, [x0, #52]
   821c8:	b0001800 	adrp	x0, 383000 <drawingScreen+0x2ff820>
   821cc:	911f8000 	add	x0, x0, #0x7e0
   821d0:	52800101 	mov	w1, #0x8                   	// #8
   821d4:	b9003801 	str	w1, [x0, #56]
   821d8:	b0001800 	adrp	x0, 383000 <drawingScreen+0x2ff820>
   821dc:	911f8000 	add	x0, x0, #0x7e0
   821e0:	b9003c1f 	str	wzr, [x0, #60]
   821e4:	b0001800 	adrp	x0, 383000 <drawingScreen+0x2ff820>
   821e8:	911f8000 	add	x0, x0, #0x7e0
   821ec:	b900401f 	str	wzr, [x0, #64]
   821f0:	b0001800 	adrp	x0, 383000 <drawingScreen+0x2ff820>
   821f4:	911f8000 	add	x0, x0, #0x7e0
   821f8:	529000a1 	mov	w1, #0x8005                	// #32773
   821fc:	72a00081 	movk	w1, #0x4, lsl #16
   82200:	b9004401 	str	w1, [x0, #68]
   82204:	b0001800 	adrp	x0, 383000 <drawingScreen+0x2ff820>
   82208:	911f8000 	add	x0, x0, #0x7e0
   8220c:	52800081 	mov	w1, #0x4                   	// #4
   82210:	b9004801 	str	w1, [x0, #72]
   82214:	b0001800 	adrp	x0, 383000 <drawingScreen+0x2ff820>
   82218:	911f8000 	add	x0, x0, #0x7e0
   8221c:	52800081 	mov	w1, #0x4                   	// #4
   82220:	b9004c01 	str	w1, [x0, #76]
   82224:	b0001800 	adrp	x0, 383000 <drawingScreen+0x2ff820>
   82228:	911f8000 	add	x0, x0, #0x7e0
   8222c:	52800401 	mov	w1, #0x20                  	// #32
   82230:	b9005001 	str	w1, [x0, #80]
   82234:	b0001800 	adrp	x0, 383000 <drawingScreen+0x2ff820>
   82238:	911f8000 	add	x0, x0, #0x7e0
   8223c:	529000c1 	mov	w1, #0x8006                	// #32774
   82240:	72a00081 	movk	w1, #0x4, lsl #16
   82244:	b9005401 	str	w1, [x0, #84]
   82248:	b0001800 	adrp	x0, 383000 <drawingScreen+0x2ff820>
   8224c:	911f8000 	add	x0, x0, #0x7e0
   82250:	52800081 	mov	w1, #0x4                   	// #4
   82254:	b9005801 	str	w1, [x0, #88]
   82258:	b0001800 	adrp	x0, 383000 <drawingScreen+0x2ff820>
   8225c:	911f8000 	add	x0, x0, #0x7e0
   82260:	52800081 	mov	w1, #0x4                   	// #4
   82264:	b9005c01 	str	w1, [x0, #92]
   82268:	b0001800 	adrp	x0, 383000 <drawingScreen+0x2ff820>
   8226c:	911f8000 	add	x0, x0, #0x7e0
   82270:	52800021 	mov	w1, #0x1                   	// #1
   82274:	b9006001 	str	w1, [x0, #96]
   82278:	b0001800 	adrp	x0, 383000 <drawingScreen+0x2ff820>
   8227c:	911f8000 	add	x0, x0, #0x7e0
   82280:	52800021 	mov	w1, #0x1                   	// #1
   82284:	72a00081 	movk	w1, #0x4, lsl #16
   82288:	b9006401 	str	w1, [x0, #100]
   8228c:	b0001800 	adrp	x0, 383000 <drawingScreen+0x2ff820>
   82290:	911f8000 	add	x0, x0, #0x7e0
   82294:	52800101 	mov	w1, #0x8                   	// #8
   82298:	b9006801 	str	w1, [x0, #104]
   8229c:	b0001800 	adrp	x0, 383000 <drawingScreen+0x2ff820>
   822a0:	911f8000 	add	x0, x0, #0x7e0
   822a4:	52800101 	mov	w1, #0x8                   	// #8
   822a8:	b9006c01 	str	w1, [x0, #108]
   822ac:	b0001800 	adrp	x0, 383000 <drawingScreen+0x2ff820>
   822b0:	911f8000 	add	x0, x0, #0x7e0
   822b4:	52820001 	mov	w1, #0x1000                	// #4096
   822b8:	b9007001 	str	w1, [x0, #112]
   822bc:	b0001800 	adrp	x0, 383000 <drawingScreen+0x2ff820>
   822c0:	911f8000 	add	x0, x0, #0x7e0
   822c4:	b900741f 	str	wzr, [x0, #116]
   822c8:	b0001800 	adrp	x0, 383000 <drawingScreen+0x2ff820>
   822cc:	911f8000 	add	x0, x0, #0x7e0
   822d0:	52800101 	mov	w1, #0x8                   	// #8
   822d4:	72a00081 	movk	w1, #0x4, lsl #16
   822d8:	b9007801 	str	w1, [x0, #120]
   822dc:	b0001800 	adrp	x0, 383000 <drawingScreen+0x2ff820>
   822e0:	911f8000 	add	x0, x0, #0x7e0
   822e4:	52800081 	mov	w1, #0x4                   	// #4
   822e8:	b9007c01 	str	w1, [x0, #124]
   822ec:	b0001800 	adrp	x0, 383000 <drawingScreen+0x2ff820>
   822f0:	911f8000 	add	x0, x0, #0x7e0
   822f4:	52800081 	mov	w1, #0x4                   	// #4
   822f8:	b9008001 	str	w1, [x0, #128]
   822fc:	b0001800 	adrp	x0, 383000 <drawingScreen+0x2ff820>
   82300:	911f8000 	add	x0, x0, #0x7e0
   82304:	b900841f 	str	wzr, [x0, #132]
   82308:	b0001800 	adrp	x0, 383000 <drawingScreen+0x2ff820>
   8230c:	911f8000 	add	x0, x0, #0x7e0
   82310:	b900881f 	str	wzr, [x0, #136]
   82314:	52800100 	mov	w0, #0x8                   	// #8
   82318:	94000035 	bl	823ec <mbox_call>
   8231c:	7100001f 	cmp	w0, #0x0
   82320:	54000600 	b.eq	823e0 <fb_init+0x308>  // b.none
   82324:	b0001800 	adrp	x0, 383000 <drawingScreen+0x2ff820>
   82328:	911f8000 	add	x0, x0, #0x7e0
   8232c:	b9405000 	ldr	w0, [x0, #80]
   82330:	7100801f 	cmp	w0, #0x20
   82334:	54000561 	b.ne	823e0 <fb_init+0x308>  // b.any
   82338:	b0001800 	adrp	x0, 383000 <drawingScreen+0x2ff820>
   8233c:	911f8000 	add	x0, x0, #0x7e0
   82340:	b9407000 	ldr	w0, [x0, #112]
   82344:	7100001f 	cmp	w0, #0x0
   82348:	540004c0 	b.eq	823e0 <fb_init+0x308>  // b.none
   8234c:	b0001800 	adrp	x0, 383000 <drawingScreen+0x2ff820>
   82350:	911f8000 	add	x0, x0, #0x7e0
   82354:	b9407000 	ldr	w0, [x0, #112]
   82358:	12007401 	and	w1, w0, #0x3fffffff
   8235c:	b0001800 	adrp	x0, 383000 <drawingScreen+0x2ff820>
   82360:	911f8000 	add	x0, x0, #0x7e0
   82364:	b9007001 	str	w1, [x0, #112]
   82368:	b0001800 	adrp	x0, 383000 <drawingScreen+0x2ff820>
   8236c:	911f8000 	add	x0, x0, #0x7e0
   82370:	b9401401 	ldr	w1, [x0, #20]
   82374:	90000000 	adrp	x0, 82000 <delays_wait_microsecs+0x68>
   82378:	913d0000 	add	x0, x0, #0xf40
   8237c:	b9000001 	str	w1, [x0]
   82380:	b0001800 	adrp	x0, 383000 <drawingScreen+0x2ff820>
   82384:	911f8000 	add	x0, x0, #0x7e0
   82388:	b9401801 	ldr	w1, [x0, #24]
   8238c:	90000000 	adrp	x0, 82000 <delays_wait_microsecs+0x68>
   82390:	913d1000 	add	x0, x0, #0xf44
   82394:	b9000001 	str	w1, [x0]
   82398:	b0001800 	adrp	x0, 383000 <drawingScreen+0x2ff820>
   8239c:	911f8000 	add	x0, x0, #0x7e0
   823a0:	b9408401 	ldr	w1, [x0, #132]
   823a4:	90000000 	adrp	x0, 82000 <delays_wait_microsecs+0x68>
   823a8:	913d2000 	add	x0, x0, #0xf48
   823ac:	b9000001 	str	w1, [x0]
   823b0:	b0001800 	adrp	x0, 383000 <drawingScreen+0x2ff820>
   823b4:	911f8000 	add	x0, x0, #0x7e0
   823b8:	b9407000 	ldr	w0, [x0, #112]
   823bc:	2a0003e0 	mov	w0, w0
   823c0:	aa0003e1 	mov	x1, x0
   823c4:	90000000 	adrp	x0, 82000 <delays_wait_microsecs+0x68>
   823c8:	913d4000 	add	x0, x0, #0xf50
   823cc:	f9000001 	str	x1, [x0]
   823d0:	90000000 	adrp	x0, 82000 <delays_wait_microsecs+0x68>
   823d4:	913d4000 	add	x0, x0, #0xf50
   823d8:	f9400000 	ldr	x0, [x0]
   823dc:	14000002 	b	823e4 <fb_init+0x30c>
   823e0:	d2800000 	mov	x0, #0x0                   	// #0
   823e4:	a8c17bfd 	ldp	x29, x30, [sp], #16
   823e8:	d65f03c0 	ret

00000000000823ec <mbox_call>:
   823ec:	d10083ff 	sub	sp, sp, #0x20
   823f0:	39003fe0 	strb	w0, [sp, #15]
   823f4:	39403fe0 	ldrb	w0, [sp, #15]
   823f8:	12000c01 	and	w1, w0, #0xf
   823fc:	b0001800 	adrp	x0, 383000 <drawingScreen+0x2ff820>
   82400:	911f8000 	add	x0, x0, #0x7e0
   82404:	121c6c00 	and	w0, w0, #0xfffffff0
   82408:	2a000020 	orr	w0, w1, w0
   8240c:	b9001fe0 	str	w0, [sp, #28]
   82410:	d503201f 	nop
   82414:	d2971300 	mov	x0, #0xb898                	// #47256
   82418:	f2a7e000 	movk	x0, #0x3f00, lsl #16
   8241c:	b9400000 	ldr	w0, [x0]
   82420:	7100001f 	cmp	w0, #0x0
   82424:	54ffff6b 	b.lt	82410 <mbox_call+0x24>  // b.tstop
   82428:	d2971400 	mov	x0, #0xb8a0                	// #47264
   8242c:	f2a7e000 	movk	x0, #0x3f00, lsl #16
   82430:	b9401fe1 	ldr	w1, [sp, #28]
   82434:	b9000001 	str	w1, [x0]
   82438:	d503201f 	nop
   8243c:	d2971300 	mov	x0, #0xb898                	// #47256
   82440:	f2a7e000 	movk	x0, #0x3f00, lsl #16
   82444:	b9400000 	ldr	w0, [x0]
   82448:	12020000 	and	w0, w0, #0x40000000
   8244c:	7100001f 	cmp	w0, #0x0
   82450:	54ffff41 	b.ne	82438 <mbox_call+0x4c>  // b.any
   82454:	d2971000 	mov	x0, #0xb880                	// #47232
   82458:	f2a7e000 	movk	x0, #0x3f00, lsl #16
   8245c:	b9400000 	ldr	w0, [x0]
   82460:	b9401fe1 	ldr	w1, [sp, #28]
   82464:	6b00003f 	cmp	w1, w0
   82468:	54fffe81 	b.ne	82438 <mbox_call+0x4c>  // b.any
   8246c:	b0001800 	adrp	x0, 383000 <drawingScreen+0x2ff820>
   82470:	911f8000 	add	x0, x0, #0x7e0
   82474:	b9400401 	ldr	w1, [x0, #4]
   82478:	52b00000 	mov	w0, #0x80000000            	// #-2147483648
   8247c:	6b00003f 	cmp	w1, w0
   82480:	1a9f17e0 	cset	w0, eq  // eq = none
   82484:	12001c00 	and	w0, w0, #0xff
   82488:	910083ff 	add	sp, sp, #0x20
   8248c:	d65f03c0 	ret

0000000000082490 <uart0_init>:
   82490:	a9be7bfd 	stp	x29, x30, [sp, #-32]!
   82494:	910003fd 	mov	x29, sp
   82498:	f9000bf3 	str	x19, [sp, #16]
   8249c:	d2820600 	mov	x0, #0x1030                	// #4144
   824a0:	f2a7e400 	movk	x0, #0x3f20, lsl #16
   824a4:	b900001f 	str	wzr, [x0]
   824a8:	b0001800 	adrp	x0, 383000 <drawingScreen+0x2ff820>
   824ac:	911f8000 	add	x0, x0, #0x7e0
   824b0:	52800481 	mov	w1, #0x24                  	// #36
   824b4:	b9000001 	str	w1, [x0]
   824b8:	b0001800 	adrp	x0, 383000 <drawingScreen+0x2ff820>
   824bc:	911f8000 	add	x0, x0, #0x7e0
   824c0:	b900041f 	str	wzr, [x0, #4]
   824c4:	b0001800 	adrp	x0, 383000 <drawingScreen+0x2ff820>
   824c8:	911f8000 	add	x0, x0, #0x7e0
   824cc:	52900041 	mov	w1, #0x8002                	// #32770
   824d0:	72a00061 	movk	w1, #0x3, lsl #16
   824d4:	b9000801 	str	w1, [x0, #8]
   824d8:	b0001800 	adrp	x0, 383000 <drawingScreen+0x2ff820>
   824dc:	911f8000 	add	x0, x0, #0x7e0
   824e0:	52800181 	mov	w1, #0xc                   	// #12
   824e4:	b9000c01 	str	w1, [x0, #12]
   824e8:	b0001800 	adrp	x0, 383000 <drawingScreen+0x2ff820>
   824ec:	911f8000 	add	x0, x0, #0x7e0
   824f0:	52800101 	mov	w1, #0x8                   	// #8
   824f4:	b9001001 	str	w1, [x0, #16]
   824f8:	b0001800 	adrp	x0, 383000 <drawingScreen+0x2ff820>
   824fc:	911f8000 	add	x0, x0, #0x7e0
   82500:	52800041 	mov	w1, #0x2                   	// #2
   82504:	b9001401 	str	w1, [x0, #20]
   82508:	b0001800 	adrp	x0, 383000 <drawingScreen+0x2ff820>
   8250c:	911f8000 	add	x0, x0, #0x7e0
   82510:	52812001 	mov	w1, #0x900                 	// #2304
   82514:	72a007a1 	movk	w1, #0x3d, lsl #16
   82518:	b9001801 	str	w1, [x0, #24]
   8251c:	b0001800 	adrp	x0, 383000 <drawingScreen+0x2ff820>
   82520:	911f8000 	add	x0, x0, #0x7e0
   82524:	b9001c1f 	str	wzr, [x0, #28]
   82528:	b0001800 	adrp	x0, 383000 <drawingScreen+0x2ff820>
   8252c:	911f8000 	add	x0, x0, #0x7e0
   82530:	b900201f 	str	wzr, [x0, #32]
   82534:	52800100 	mov	w0, #0x8                   	// #8
   82538:	97ffffad 	bl	823ec <mbox_call>
   8253c:	d2800080 	mov	x0, #0x4                   	// #4
   82540:	f2a7e400 	movk	x0, #0x3f20, lsl #16
   82544:	b9400013 	ldr	w19, [x0]
   82548:	120e6673 	and	w19, w19, #0xfffc0fff
   8254c:	52880000 	mov	w0, #0x4000                	// #16384
   82550:	72a00040 	movk	w0, #0x2, lsl #16
   82554:	2a000273 	orr	w19, w19, w0
   82558:	d2800080 	mov	x0, #0x4                   	// #4
   8255c:	f2a7e400 	movk	x0, #0x3f20, lsl #16
   82560:	b9000013 	str	w19, [x0]
   82564:	d2801280 	mov	x0, #0x94                  	// #148
   82568:	f2a7e400 	movk	x0, #0x3f20, lsl #16
   8256c:	b900001f 	str	wzr, [x0]
   82570:	528012c0 	mov	w0, #0x96                  	// #150
   82574:	97fffe7a 	bl	81f5c <delays_wait_cycles>
   82578:	d2801300 	mov	x0, #0x98                  	// #152
   8257c:	f2a7e400 	movk	x0, #0x3f20, lsl #16
   82580:	52980001 	mov	w1, #0xc000                	// #49152
   82584:	b9000001 	str	w1, [x0]
   82588:	528012c0 	mov	w0, #0x96                  	// #150
   8258c:	97fffe74 	bl	81f5c <delays_wait_cycles>
   82590:	d2801300 	mov	x0, #0x98                  	// #152
   82594:	f2a7e400 	movk	x0, #0x3f20, lsl #16
   82598:	b900001f 	str	wzr, [x0]
   8259c:	d2820880 	mov	x0, #0x1044                	// #4164
   825a0:	f2a7e400 	movk	x0, #0x3f20, lsl #16
   825a4:	5280ffe1 	mov	w1, #0x7ff                 	// #2047
   825a8:	b9000001 	str	w1, [x0]
   825ac:	d2820480 	mov	x0, #0x1024                	// #4132
   825b0:	f2a7e400 	movk	x0, #0x3f20, lsl #16
   825b4:	52800041 	mov	w1, #0x2                   	// #2
   825b8:	b9000001 	str	w1, [x0]
   825bc:	d2820500 	mov	x0, #0x1028                	// #4136
   825c0:	f2a7e400 	movk	x0, #0x3f20, lsl #16
   825c4:	52800161 	mov	w1, #0xb                   	// #11
   825c8:	b9000001 	str	w1, [x0]
   825cc:	d2820580 	mov	x0, #0x102c                	// #4140
   825d0:	f2a7e400 	movk	x0, #0x3f20, lsl #16
   825d4:	52800c01 	mov	w1, #0x60                  	// #96
   825d8:	b9000001 	str	w1, [x0]
   825dc:	d2820600 	mov	x0, #0x1030                	// #4144
   825e0:	f2a7e400 	movk	x0, #0x3f20, lsl #16
   825e4:	52806021 	mov	w1, #0x301                 	// #769
   825e8:	b9000001 	str	w1, [x0]
   825ec:	d503201f 	nop
   825f0:	f9400bf3 	ldr	x19, [sp, #16]
   825f4:	a8c27bfd 	ldp	x29, x30, [sp], #32
   825f8:	d65f03c0 	ret

00000000000825fc <uart0_puthex_64_bits>:
   825fc:	a9bd7bfd 	stp	x29, x30, [sp, #-48]!
   82600:	910003fd 	mov	x29, sp
   82604:	f9000fe0 	str	x0, [sp, #24]
   82608:	52800780 	mov	w0, #0x3c                  	// #60
   8260c:	b9002fe0 	str	w0, [sp, #44]
   82610:	14000015 	b	82664 <uart0_puthex_64_bits+0x68>
   82614:	b9402fe0 	ldr	w0, [sp, #44]
   82618:	f9400fe1 	ldr	x1, [sp, #24]
   8261c:	9ac02420 	lsr	x0, x1, x0
   82620:	12000c00 	and	w0, w0, #0xf
   82624:	b9002be0 	str	w0, [sp, #40]
   82628:	b9402be0 	ldr	w0, [sp, #40]
   8262c:	7100241f 	cmp	w0, #0x9
   82630:	54000069 	b.ls	8263c <uart0_puthex_64_bits+0x40>  // b.plast
   82634:	528006e0 	mov	w0, #0x37                  	// #55
   82638:	14000002 	b	82640 <uart0_puthex_64_bits+0x44>
   8263c:	52800600 	mov	w0, #0x30                  	// #48
   82640:	b9402be1 	ldr	w1, [sp, #40]
   82644:	0b000020 	add	w0, w1, w0
   82648:	b9002be0 	str	w0, [sp, #40]
   8264c:	b9402be0 	ldr	w0, [sp, #40]
   82650:	12001c00 	and	w0, w0, #0xff
   82654:	9400002a 	bl	826fc <uart0_putc>
   82658:	b9402fe0 	ldr	w0, [sp, #44]
   8265c:	51001000 	sub	w0, w0, #0x4
   82660:	b9002fe0 	str	w0, [sp, #44]
   82664:	b9402fe0 	ldr	w0, [sp, #44]
   82668:	7100001f 	cmp	w0, #0x0
   8266c:	54fffd4a 	b.ge	82614 <uart0_puthex_64_bits+0x18>  // b.tcont
   82670:	d503201f 	nop
   82674:	a8c37bfd 	ldp	x29, x30, [sp], #48
   82678:	d65f03c0 	ret

000000000008267c <uart0_puthex_32_bits>:
   8267c:	a9bd7bfd 	stp	x29, x30, [sp, #-48]!
   82680:	910003fd 	mov	x29, sp
   82684:	b9001fe0 	str	w0, [sp, #28]
   82688:	52800380 	mov	w0, #0x1c                  	// #28
   8268c:	b9002fe0 	str	w0, [sp, #44]
   82690:	14000015 	b	826e4 <uart0_puthex_32_bits+0x68>
   82694:	b9402fe0 	ldr	w0, [sp, #44]
   82698:	b9401fe1 	ldr	w1, [sp, #28]
   8269c:	1ac02420 	lsr	w0, w1, w0
   826a0:	12000c00 	and	w0, w0, #0xf
   826a4:	b9002be0 	str	w0, [sp, #40]
   826a8:	b9402be0 	ldr	w0, [sp, #40]
   826ac:	7100241f 	cmp	w0, #0x9
   826b0:	54000069 	b.ls	826bc <uart0_puthex_32_bits+0x40>  // b.plast
   826b4:	528006e0 	mov	w0, #0x37                  	// #55
   826b8:	14000002 	b	826c0 <uart0_puthex_32_bits+0x44>
   826bc:	52800600 	mov	w0, #0x30                  	// #48
   826c0:	b9402be1 	ldr	w1, [sp, #40]
   826c4:	0b000020 	add	w0, w1, w0
   826c8:	b9002be0 	str	w0, [sp, #40]
   826cc:	b9402be0 	ldr	w0, [sp, #40]
   826d0:	12001c00 	and	w0, w0, #0xff
   826d4:	9400000a 	bl	826fc <uart0_putc>
   826d8:	b9402fe0 	ldr	w0, [sp, #44]
   826dc:	51001000 	sub	w0, w0, #0x4
   826e0:	b9002fe0 	str	w0, [sp, #44]
   826e4:	b9402fe0 	ldr	w0, [sp, #44]
   826e8:	7100001f 	cmp	w0, #0x0
   826ec:	54fffd4a 	b.ge	82694 <uart0_puthex_32_bits+0x18>  // b.tcont
   826f0:	d503201f 	nop
   826f4:	a8c37bfd 	ldp	x29, x30, [sp], #48
   826f8:	d65f03c0 	ret

00000000000826fc <uart0_putc>:
   826fc:	d10043ff 	sub	sp, sp, #0x10
   82700:	39003fe0 	strb	w0, [sp, #15]
   82704:	d503201f 	nop
   82708:	d2820300 	mov	x0, #0x1018                	// #4120
   8270c:	f2a7e400 	movk	x0, #0x3f20, lsl #16
   82710:	b9400000 	ldr	w0, [x0]
   82714:	121b0000 	and	w0, w0, #0x20
   82718:	7100001f 	cmp	w0, #0x0
   8271c:	54ffff41 	b.ne	82704 <uart0_putc+0x8>  // b.any
   82720:	d2820000 	mov	x0, #0x1000                	// #4096
   82724:	f2a7e400 	movk	x0, #0x3f20, lsl #16
   82728:	39403fe1 	ldrb	w1, [sp, #15]
   8272c:	b9000001 	str	w1, [x0]
   82730:	d503201f 	nop
   82734:	910043ff 	add	sp, sp, #0x10
   82738:	d65f03c0 	ret

000000000008273c <uart0_nonblocking_getc>:
   8273c:	d10043ff 	sub	sp, sp, #0x10
   82740:	f90007e0 	str	x0, [sp, #8]
   82744:	d2820300 	mov	x0, #0x1018                	// #4120
   82748:	f2a7e400 	movk	x0, #0x3f20, lsl #16
   8274c:	b9400000 	ldr	w0, [x0]
   82750:	121c0000 	and	w0, w0, #0x10
   82754:	7100001f 	cmp	w0, #0x0
   82758:	54000060 	b.eq	82764 <uart0_nonblocking_getc+0x28>  // b.none
   8275c:	52800000 	mov	w0, #0x0                   	// #0
   82760:	1400000f 	b	8279c <uart0_nonblocking_getc+0x60>
   82764:	d2820000 	mov	x0, #0x1000                	// #4096
   82768:	f2a7e400 	movk	x0, #0x3f20, lsl #16
   8276c:	b9400000 	ldr	w0, [x0]
   82770:	12001c01 	and	w1, w0, #0xff
   82774:	f94007e0 	ldr	x0, [sp, #8]
   82778:	39000001 	strb	w1, [x0]
   8277c:	f94007e0 	ldr	x0, [sp, #8]
   82780:	39400000 	ldrb	w0, [x0]
   82784:	7100341f 	cmp	w0, #0xd
   82788:	54000081 	b.ne	82798 <uart0_nonblocking_getc+0x5c>  // b.any
   8278c:	f94007e0 	ldr	x0, [sp, #8]
   82790:	52800141 	mov	w1, #0xa                   	// #10
   82794:	39000001 	strb	w1, [x0]
   82798:	52800020 	mov	w0, #0x1                   	// #1
   8279c:	910043ff 	add	sp, sp, #0x10
   827a0:	d65f03c0 	ret

00000000000827a4 <uart0_getc>:
   827a4:	d10043ff 	sub	sp, sp, #0x10
   827a8:	d503201f 	nop
   827ac:	d2820300 	mov	x0, #0x1018                	// #4120
   827b0:	f2a7e400 	movk	x0, #0x3f20, lsl #16
   827b4:	b9400000 	ldr	w0, [x0]
   827b8:	121c0000 	and	w0, w0, #0x10
   827bc:	7100001f 	cmp	w0, #0x0
   827c0:	54ffff41 	b.ne	827a8 <uart0_getc+0x4>  // b.any
   827c4:	d2820000 	mov	x0, #0x1000                	// #4096
   827c8:	f2a7e400 	movk	x0, #0x3f20, lsl #16
   827cc:	b9400000 	ldr	w0, [x0]
   827d0:	39003fe0 	strb	w0, [sp, #15]
   827d4:	39403fe0 	ldrb	w0, [sp, #15]
   827d8:	7100341f 	cmp	w0, #0xd
   827dc:	54000060 	b.eq	827e8 <uart0_getc+0x44>  // b.none
   827e0:	39403fe0 	ldrb	w0, [sp, #15]
   827e4:	14000002 	b	827ec <uart0_getc+0x48>
   827e8:	52800140 	mov	w0, #0xa                   	// #10
   827ec:	910043ff 	add	sp, sp, #0x10
   827f0:	d65f03c0 	ret

00000000000827f4 <uart0_puts>:
   827f4:	a9be7bfd 	stp	x29, x30, [sp, #-32]!
   827f8:	910003fd 	mov	x29, sp
   827fc:	f9000fe0 	str	x0, [sp, #24]
   82800:	1400000c 	b	82830 <uart0_puts+0x3c>
   82804:	f9400fe0 	ldr	x0, [sp, #24]
   82808:	39400000 	ldrb	w0, [x0]
   8280c:	7100281f 	cmp	w0, #0xa
   82810:	54000061 	b.ne	8281c <uart0_puts+0x28>  // b.any
   82814:	528001a0 	mov	w0, #0xd                   	// #13
   82818:	97ffffb9 	bl	826fc <uart0_putc>
   8281c:	f9400fe0 	ldr	x0, [sp, #24]
   82820:	91000401 	add	x1, x0, #0x1
   82824:	f9000fe1 	str	x1, [sp, #24]
   82828:	39400000 	ldrb	w0, [x0]
   8282c:	97ffffb4 	bl	826fc <uart0_putc>
   82830:	f9400fe0 	ldr	x0, [sp, #24]
   82834:	39400000 	ldrb	w0, [x0]
   82838:	7100001f 	cmp	w0, #0x0
   8283c:	54fffe41 	b.ne	82804 <uart0_puts+0x10>  // b.any
   82840:	d503201f 	nop
   82844:	a8c27bfd 	ldp	x29, x30, [sp], #32
   82848:	d65f03c0 	ret

000000000008284c <uart0_dump>:
   8284c:	a9bc7bfd 	stp	x29, x30, [sp, #-64]!
   82850:	910003fd 	mov	x29, sp
   82854:	f9000fe0 	str	x0, [sp, #24]
   82858:	f9400fe0 	ldr	x0, [sp, #24]
   8285c:	f9001fe0 	str	x0, [sp, #56]
   82860:	1400005e 	b	829d8 <uart0_dump+0x18c>
   82864:	f9401fe0 	ldr	x0, [sp, #56]
   82868:	97ffff85 	bl	8267c <uart0_puthex_32_bits>
   8286c:	d0001800 	adrp	x0, 384000 <__rodata_start+0x790>
   82870:	910b4000 	add	x0, x0, #0x2d0
   82874:	97ffffe0 	bl	827f4 <uart0_puts>
   82878:	f9001bff 	str	xzr, [sp, #48]
   8287c:	14000036 	b	82954 <uart0_dump+0x108>
   82880:	f9401fe1 	ldr	x1, [sp, #56]
   82884:	f9401be0 	ldr	x0, [sp, #48]
   82888:	8b000020 	add	x0, x1, x0
   8288c:	39400000 	ldrb	w0, [x0]
   82890:	3900bfe0 	strb	w0, [sp, #47]
   82894:	3940bfe0 	ldrb	w0, [sp, #47]
   82898:	f90013e0 	str	x0, [sp, #32]
   8289c:	f94013e1 	ldr	x1, [sp, #32]
   828a0:	d344fc20 	lsr	x0, x1, #4
   828a4:	f90013e0 	str	x0, [sp, #32]
   828a8:	f94013e0 	ldr	x0, [sp, #32]
   828ac:	92400c00 	and	x0, x0, #0xf
   828b0:	f90013e0 	str	x0, [sp, #32]
   828b4:	f94013e0 	ldr	x0, [sp, #32]
   828b8:	f100241f 	cmp	x0, #0x9
   828bc:	54000069 	b.ls	828c8 <uart0_dump+0x7c>  // b.plast
   828c0:	d28006e0 	mov	x0, #0x37                  	// #55
   828c4:	14000002 	b	828cc <uart0_dump+0x80>
   828c8:	d2800600 	mov	x0, #0x30                  	// #48
   828cc:	f94013e1 	ldr	x1, [sp, #32]
   828d0:	8b000020 	add	x0, x1, x0
   828d4:	f90013e0 	str	x0, [sp, #32]
   828d8:	f94013e0 	ldr	x0, [sp, #32]
   828dc:	12001c00 	and	w0, w0, #0xff
   828e0:	97ffff87 	bl	826fc <uart0_putc>
   828e4:	3940bfe0 	ldrb	w0, [sp, #47]
   828e8:	f90013e0 	str	x0, [sp, #32]
   828ec:	f94013e0 	ldr	x0, [sp, #32]
   828f0:	92400c00 	and	x0, x0, #0xf
   828f4:	f90013e0 	str	x0, [sp, #32]
   828f8:	f94013e0 	ldr	x0, [sp, #32]
   828fc:	f100241f 	cmp	x0, #0x9
   82900:	54000069 	b.ls	8290c <uart0_dump+0xc0>  // b.plast
   82904:	d28006e0 	mov	x0, #0x37                  	// #55
   82908:	14000002 	b	82910 <uart0_dump+0xc4>
   8290c:	d2800600 	mov	x0, #0x30                  	// #48
   82910:	f94013e1 	ldr	x1, [sp, #32]
   82914:	8b000020 	add	x0, x1, x0
   82918:	f90013e0 	str	x0, [sp, #32]
   8291c:	f94013e0 	ldr	x0, [sp, #32]
   82920:	12001c00 	and	w0, w0, #0xff
   82924:	97ffff76 	bl	826fc <uart0_putc>
   82928:	52800400 	mov	w0, #0x20                  	// #32
   8292c:	97ffff74 	bl	826fc <uart0_putc>
   82930:	f9401be0 	ldr	x0, [sp, #48]
   82934:	92400400 	and	x0, x0, #0x3
   82938:	f1000c1f 	cmp	x0, #0x3
   8293c:	54000061 	b.ne	82948 <uart0_dump+0xfc>  // b.any
   82940:	52800400 	mov	w0, #0x20                  	// #32
   82944:	97ffff6e 	bl	826fc <uart0_putc>
   82948:	f9401be0 	ldr	x0, [sp, #48]
   8294c:	91000400 	add	x0, x0, #0x1
   82950:	f9001be0 	str	x0, [sp, #48]
   82954:	f9401be0 	ldr	x0, [sp, #48]
   82958:	f1003c1f 	cmp	x0, #0xf
   8295c:	54fff929 	b.ls	82880 <uart0_dump+0x34>  // b.plast
   82960:	f9001bff 	str	xzr, [sp, #48]
   82964:	14000013 	b	829b0 <uart0_dump+0x164>
   82968:	f9401fe1 	ldr	x1, [sp, #56]
   8296c:	f9401be0 	ldr	x0, [sp, #48]
   82970:	8b000020 	add	x0, x1, x0
   82974:	39400000 	ldrb	w0, [x0]
   82978:	3900bfe0 	strb	w0, [sp, #47]
   8297c:	3940bfe0 	ldrb	w0, [sp, #47]
   82980:	71007c1f 	cmp	w0, #0x1f
   82984:	540000c9 	b.ls	8299c <uart0_dump+0x150>  // b.plast
   82988:	3940bfe0 	ldrb	w0, [sp, #47]
   8298c:	7101f81f 	cmp	w0, #0x7e
   82990:	54000068 	b.hi	8299c <uart0_dump+0x150>  // b.pmore
   82994:	3940bfe0 	ldrb	w0, [sp, #47]
   82998:	14000002 	b	829a0 <uart0_dump+0x154>
   8299c:	528005c0 	mov	w0, #0x2e                  	// #46
   829a0:	97ffff57 	bl	826fc <uart0_putc>
   829a4:	f9401be0 	ldr	x0, [sp, #48]
   829a8:	91000400 	add	x0, x0, #0x1
   829ac:	f9001be0 	str	x0, [sp, #48]
   829b0:	f9401be0 	ldr	x0, [sp, #48]
   829b4:	f1003c1f 	cmp	x0, #0xf
   829b8:	54fffd89 	b.ls	82968 <uart0_dump+0x11c>  // b.plast
   829bc:	528001a0 	mov	w0, #0xd                   	// #13
   829c0:	97ffff4f 	bl	826fc <uart0_putc>
   829c4:	52800140 	mov	w0, #0xa                   	// #10
   829c8:	97ffff4d 	bl	826fc <uart0_putc>
   829cc:	f9401fe0 	ldr	x0, [sp, #56]
   829d0:	91004000 	add	x0, x0, #0x10
   829d4:	f9001fe0 	str	x0, [sp, #56]
   829d8:	f9400fe0 	ldr	x0, [sp, #24]
   829dc:	91080000 	add	x0, x0, #0x200
   829e0:	f9401fe1 	ldr	x1, [sp, #56]
   829e4:	eb00003f 	cmp	x1, x0
   829e8:	54fff3e3 	b.cc	82864 <uart0_dump+0x18>  // b.lo, b.ul, b.last
   829ec:	d503201f 	nop
   829f0:	a8c47bfd 	ldp	x29, x30, [sp], #64
   829f4:	d65f03c0 	ret

Disassembly of section .data:

00000000000829f8 <title>:
   829f8:	00383870 	.word	0x00383870
   829fc:	00000000 	.word	0x00000000

0000000000082a00 <alice>:
   82a00:	003838e8 	.word	0x003838e8
   82a04:	00000000 	.word	0x00000000

0000000000082a08 <zoom_title>:
   82a08:	00000001 	.word	0x00000001

0000000000082a0c <zoom_text>:
   82a0c:	00000001 	.word	0x00000001

0000000000082a10 <changed>:
   82a10:	00000001 	.word	0x00000001
   82a14:	00000000 	.word	0x00000000

0000000000082a18 <charSize>:
   82a18:	00000014 	.word	0x00000014
   82a1c:	00000000 	.word	0x00000000

0000000000082a20 <ship>:
   82a20:	fffd0000 	.word	0xfffd0000
   82a24:	000000ff 	.word	0x000000ff
   82a28:	fffe0000 	.word	0xfffe0000
   82a2c:	000000ff 	.word	0x000000ff
   82a30:	ffffffff 	.word	0xffffffff
   82a34:	000000ff 	.word	0x000000ff
   82a38:	ffff0000 	.word	0xffff0000
   82a3c:	000000ff 	.word	0x000000ff
   82a40:	ffff0001 	.word	0xffff0001
   82a44:	000000ff 	.word	0x000000ff
   82a48:	0000ffff 	.word	0x0000ffff
   82a4c:	000000ff 	.word	0x000000ff
   82a50:	00000000 	.word	0x00000000
   82a54:	000000ff 	.word	0x000000ff
   82a58:	00000001 	.word	0x00000001
   82a5c:	000000ff 	.word	0x000000ff
   82a60:	0001fffe 	.word	0x0001fffe
   82a64:	000000ff 	.word	0x000000ff
   82a68:	0001ffff 	.word	0x0001ffff
   82a6c:	000000ff 	.word	0x000000ff
   82a70:	00010000 	.word	0x00010000
   82a74:	000000ff 	.word	0x000000ff
   82a78:	00010001 	.word	0x00010001
   82a7c:	000000ff 	.word	0x000000ff
   82a80:	00010002 	.word	0x00010002
   82a84:	000000ff 	.word	0x000000ff
   82a88:	0002fffe 	.word	0x0002fffe
   82a8c:	000000ff 	.word	0x000000ff
   82a90:	0002ffff 	.word	0x0002ffff
   82a94:	000000ff 	.word	0x000000ff
   82a98:	00020000 	.word	0x00020000
   82a9c:	000000ff 	.word	0x000000ff
   82aa0:	00020001 	.word	0x00020001
   82aa4:	000000ff 	.word	0x000000ff
   82aa8:	00020002 	.word	0x00020002
   82aac:	000000ff 	.word	0x000000ff
	...
   82f20:	01f40012 	.word	0x01f40012
   82f24:	00000258 	.word	0x00000258

0000000000082f28 <cursorPos>:
   82f28:	00001405 	.word	0x00001405

Disassembly of section .bss:

0000000000082f30 <lineHeight>:
	...

0000000000082f38 <fb>:
	...

0000000000082f40 <width>:
   82f40:	00000000 	.word	0x00000000

0000000000082f44 <height>:
   82f44:	00000000 	.word	0x00000000

0000000000082f48 <pitch>:
	...

0000000000082f50 <fb>:
	...

0000000000082f58 <characters>:
	...

00000000000837e0 <drawingScreen>:
	...

00000000003837e0 <mbox>:
	...

Disassembly of section .rodata:

0000000000383870 <__rodata_start>:
  383870:	43494c41 	.word	0x43494c41
  383874:	20532745 	.word	0x20532745
  383878:	45564441 	.word	0x45564441
  38387c:	5255544e 	.word	0x5255544e
  383880:	49205345 	.word	0x49205345
  383884:	4f57204e 	.word	0x4f57204e
  383888:	5245444e 	.word	0x5245444e
  38388c:	444e414c 	.word	0x444e414c
  383890:	654c0d0a 	.word	0x654c0d0a
  383894:	20736977 	.word	0x20736977
  383898:	72726143 	.word	0x72726143
  38389c:	0a6c6c6f 	.word	0x0a6c6c6f
  3838a0:	4548540d 	.word	0x4548540d
  3838a4:	4c494d20 	.word	0x4c494d20
  3838a8:	4e4e454c 	.word	0x4e4e454c
  3838ac:	204d5549 	.word	0x204d5549
  3838b0:	434c5546 	.word	0x434c5546
  3838b4:	204d5552 	.word	0x204d5552
  3838b8:	54494445 	.word	0x54494445
  3838bc:	204e4f49 	.word	0x204e4f49
  3838c0:	0a302e33 	.word	0x0a302e33
  3838c4:	4148430d 	.word	0x4148430d
  3838c8:	52455450 	.word	0x52455450
  3838cc:	0d0a4920 	.word	0x0d0a4920
  3838d0:	6e776f44 	.word	0x6e776f44
  3838d4:	65687420 	.word	0x65687420
  3838d8:	62615220 	.word	0x62615220
  3838dc:	2d746962 	.word	0x2d746962
  3838e0:	656c6f48 	.word	0x656c6f48
  3838e4:	00000000 	.word	0x00000000
  3838e8:	0d0a0d0a 	.word	0x0d0a0d0a
  3838ec:	63696c41 	.word	0x63696c41
  3838f0:	61772065 	.word	0x61772065
  3838f4:	65622073 	.word	0x65622073
  3838f8:	6e6e6967 	.word	0x6e6e6967
  3838fc:	20676e69 	.word	0x20676e69
  383900:	67206f74 	.word	0x67206f74
  383904:	76207465 	.word	0x76207465
  383908:	20797265 	.word	0x20797265
  38390c:	65726974 	.word	0x65726974
  383910:	666f2064 	.word	0x666f2064
  383914:	74697320 	.word	0x74697320
  383918:	676e6974 	.word	0x676e6974
  38391c:	20796220 	.word	0x20796220
  383920:	20726568 	.word	0x20726568
  383924:	74736973 	.word	0x74736973
  383928:	6f207265 	.word	0x6f207265
  38392c:	6874206e 	.word	0x6874206e
  383930:	61622065 	.word	0x61622065
  383934:	202c6b6e 	.word	0x202c6b6e
  383938:	20646e61 	.word	0x20646e61
  38393c:	6820666f 	.word	0x6820666f
  383940:	6e697661 	.word	0x6e697661
  383944:	6f6e2067 	.word	0x6f6e2067
  383948:	6e696874 	.word	0x6e696874
  38394c:	6f742067 	.word	0x6f742067
  383950:	3a6f6420 	.word	0x3a6f6420
  383954:	6e6f2020 	.word	0x6e6f2020
  383958:	6f206563 	.word	0x6f206563
  38395c:	77742072 	.word	0x77742072
  383960:	20656369 	.word	0x20656369
  383964:	20656873 	.word	0x20656873
  383968:	20646168 	.word	0x20646168
  38396c:	70656570 	.word	0x70656570
  383970:	69206465 	.word	0x69206465
  383974:	206f746e 	.word	0x206f746e
  383978:	20656874 	.word	0x20656874
  38397c:	6b6f6f62 	.word	0x6b6f6f62
  383980:	72656820 	.word	0x72656820
  383984:	73697320 	.word	0x73697320
  383988:	20726574 	.word	0x20726574
  38398c:	20736177 	.word	0x20736177
  383990:	64616572 	.word	0x64616572
  383994:	2c676e69 	.word	0x2c676e69
  383998:	74756220 	.word	0x74756220
  38399c:	20746920 	.word	0x20746920
  3839a0:	20646168 	.word	0x20646168
  3839a4:	70206f6e 	.word	0x70206f6e
  3839a8:	75746369 	.word	0x75746369
  3839ac:	20736572 	.word	0x20736572
  3839b0:	6320726f 	.word	0x6320726f
  3839b4:	65766e6f 	.word	0x65766e6f
  3839b8:	74617372 	.word	0x74617372
  3839bc:	736e6f69 	.word	0x736e6f69
  3839c0:	206e6920 	.word	0x206e6920
  3839c4:	202c7469 	.word	0x202c7469
  3839c8:	646e6160 	.word	0x646e6160
  3839cc:	61687720 	.word	0x61687720
  3839d0:	73692074 	.word	0x73692074
  3839d4:	65687420 	.word	0x65687420
  3839d8:	65737520 	.word	0x65737520
  3839dc:	20666f20 	.word	0x20666f20
  3839e0:	6f622061 	.word	0x6f622061
  3839e4:	272c6b6f 	.word	0x272c6b6f
  3839e8:	6f687420 	.word	0x6f687420
  3839ec:	74686775 	.word	0x74686775
  3839f0:	696c4120 	.word	0x696c4120
  3839f4:	60206563 	.word	0x60206563
  3839f8:	68746977 	.word	0x68746977
  3839fc:	2074756f 	.word	0x2074756f
  383a00:	74636970 	.word	0x74636970
  383a04:	73657275 	.word	0x73657275
  383a08:	20726f20 	.word	0x20726f20
  383a0c:	766e6f63 	.word	0x766e6f63
  383a10:	61737265 	.word	0x61737265
  383a14:	6e6f6974 	.word	0x6e6f6974
  383a18:	0d0a273f 	.word	0x0d0a273f
  383a1c:	20200d0a 	.word	0x20200d0a
  383a20:	73206f53 	.word	0x73206f53
  383a24:	77206568 	.word	0x77206568
  383a28:	63207361 	.word	0x63207361
  383a2c:	69736e6f 	.word	0x69736e6f
  383a30:	69726564 	.word	0x69726564
  383a34:	6920676e 	.word	0x6920676e
  383a38:	6568206e 	.word	0x6568206e
  383a3c:	776f2072 	.word	0x776f2072
  383a40:	696d206e 	.word	0x696d206e
  383a44:	2820646e 	.word	0x2820646e
  383a48:	77207361 	.word	0x77207361
  383a4c:	206c6c65 	.word	0x206c6c65
  383a50:	73207361 	.word	0x73207361
  383a54:	63206568 	.word	0x63206568
  383a58:	646c756f 	.word	0x646c756f
  383a5c:	6f66202c 	.word	0x6f66202c
  383a60:	68742072 	.word	0x68742072
  383a64:	6f682065 	.word	0x6f682065
  383a68:	61642074 	.word	0x61642074
  383a6c:	616d2079 	.word	0x616d2079
  383a70:	68206564 	.word	0x68206564
  383a74:	66207265 	.word	0x66207265
  383a78:	206c6565 	.word	0x206c6565
  383a7c:	79726576 	.word	0x79726576
  383a80:	656c7320 	.word	0x656c7320
  383a84:	20797065 	.word	0x20797065
  383a88:	20646e61 	.word	0x20646e61
  383a8c:	70757473 	.word	0x70757473
  383a90:	2c296469 	.word	0x2c296469
  383a94:	65687720 	.word	0x65687720
  383a98:	72656874 	.word	0x72656874
  383a9c:	65687420 	.word	0x65687420
  383aa0:	656c7020 	.word	0x656c7020
  383aa4:	72757361 	.word	0x72757361
  383aa8:	666f2065 	.word	0x666f2065
  383aac:	6b616d20 	.word	0x6b616d20
  383ab0:	20676e69 	.word	0x20676e69
  383ab4:	61642061 	.word	0x61642061
  383ab8:	2d797369 	.word	0x2d797369
  383abc:	69616863 	.word	0x69616863
  383ac0:	6f77206e 	.word	0x6f77206e
  383ac4:	20646c75 	.word	0x20646c75
  383ac8:	77206562 	.word	0x77206562
  383acc:	6874726f 	.word	0x6874726f
  383ad0:	65687420 	.word	0x65687420
  383ad4:	6f727420 	.word	0x6f727420
  383ad8:	656c6275 	.word	0x656c6275
  383adc:	20666f20 	.word	0x20666f20
  383ae0:	74746567 	.word	0x74746567
  383ae4:	20676e69 	.word	0x20676e69
  383ae8:	61207075 	.word	0x61207075
  383aec:	7020646e 	.word	0x7020646e
  383af0:	696b6369 	.word	0x696b6369
  383af4:	7420676e 	.word	0x7420676e
  383af8:	64206568 	.word	0x64206568
  383afc:	69736961 	.word	0x69736961
  383b00:	202c7365 	.word	0x202c7365
  383b04:	6e656877 	.word	0x6e656877
  383b08:	64757320 	.word	0x64757320
  383b0c:	6c6e6564 	.word	0x6c6e6564
  383b10:	20612079 	.word	0x20612079
  383b14:	74696857 	.word	0x74696857
  383b18:	61522065 	.word	0x61522065
  383b1c:	74696262 	.word	0x74696262
  383b20:	74697720 	.word	0x74697720
  383b24:	69702068 	.word	0x69702068
  383b28:	65206b6e 	.word	0x65206b6e
  383b2c:	20736579 	.word	0x20736579
  383b30:	206e6172 	.word	0x206e6172
  383b34:	736f6c63 	.word	0x736f6c63
  383b38:	79622065 	.word	0x79622065
  383b3c:	72656820 	.word	0x72656820
  383b40:	54200d0a 	.word	0x54200d0a
  383b44:	65726568 	.word	0x65726568
  383b48:	73617720 	.word	0x73617720
  383b4c:	746f6e20 	.word	0x746f6e20
  383b50:	676e6968 	.word	0x676e6968
  383b54:	206f7320 	.word	0x206f7320
  383b58:	59524556 	.word	0x59524556
  383b5c:	6d657220 	.word	0x6d657220
  383b60:	616b7261 	.word	0x616b7261
  383b64:	20656c62 	.word	0x20656c62
  383b68:	74206e69 	.word	0x74206e69
  383b6c:	3b746168 	.word	0x3b746168
  383b70:	726f6e20 	.word	0x726f6e20
  383b74:	64696420 	.word	0x64696420
  383b78:	696c4120 	.word	0x696c4120
  383b7c:	74206563 	.word	0x74206563
  383b80:	6b6e6968 	.word	0x6b6e6968
  383b84:	20746920 	.word	0x20746920
  383b88:	56206f73 	.word	0x56206f73
  383b8c:	20595245 	.word	0x20595245
  383b90:	6863756d 	.word	0x6863756d
  383b94:	74756f20 	.word	0x74756f20
  383b98:	20666f20 	.word	0x20666f20
  383b9c:	20656874 	.word	0x20656874
  383ba0:	20796177 	.word	0x20796177
  383ba4:	68206f74 	.word	0x68206f74
  383ba8:	20726165 	.word	0x20726165
  383bac:	20656874 	.word	0x20656874
  383bb0:	62626152 	.word	0x62626152
  383bb4:	73207469 	.word	0x73207469
  383bb8:	74207961 	.word	0x74207961
  383bbc:	7469206f 	.word	0x7469206f
  383bc0:	666c6573 	.word	0x666c6573
  383bc4:	4f60202c 	.word	0x4f60202c
  383bc8:	65642068 	.word	0x65642068
  383bcc:	20217261 	.word	0x20217261
  383bd0:	20684f20 	.word	0x20684f20
  383bd4:	72616564 	.word	0x72616564
  383bd8:	49202021 	.word	0x49202021
  383bdc:	61687320 	.word	0x61687320
  383be0:	62206c6c 	.word	0x62206c6c
  383be4:	616c2065 	.word	0x616c2065
  383be8:	27216574 	.word	0x27216574
  383bec:	77282020 	.word	0x77282020
  383bf0:	206e6568 	.word	0x206e6568
  383bf4:	20656873 	.word	0x20656873
  383bf8:	756f6874 	.word	0x756f6874
  383bfc:	20746867 	.word	0x20746867
  383c00:	6f207469 	.word	0x6f207469
  383c04:	20726576 	.word	0x20726576
  383c08:	65746661 	.word	0x65746661
  383c0c:	72617772 	.word	0x72617772
  383c10:	202c7364 	.word	0x202c7364
  383c14:	6f207469 	.word	0x6f207469
  383c18:	72756363 	.word	0x72756363
  383c1c:	20646572 	.word	0x20646572
  383c20:	68206f74 	.word	0x68206f74
  383c24:	74207265 	.word	0x74207265
  383c28:	20746168 	.word	0x20746168
  383c2c:	20656873 	.word	0x20656873
  383c30:	6867756f 	.word	0x6867756f
  383c34:	6f742074 	.word	0x6f742074
  383c38:	76616820 	.word	0x76616820
  383c3c:	6f772065 	.word	0x6f772065
  383c40:	7265646e 	.word	0x7265646e
  383c44:	61206465 	.word	0x61206465
  383c48:	68742074 	.word	0x68742074
  383c4c:	202c7369 	.word	0x202c7369
  383c50:	20747562 	.word	0x20747562
  383c54:	74207461 	.word	0x74207461
  383c58:	74206568 	.word	0x74206568
  383c5c:	20656d69 	.word	0x20656d69
  383c60:	61207469 	.word	0x61207469
  383c64:	73206c6c 	.word	0x73206c6c
  383c68:	656d6565 	.word	0x656d6565
  383c6c:	75712064 	.word	0x75712064
  383c70:	20657469 	.word	0x20657469
  383c74:	7574616e 	.word	0x7574616e
  383c78:	296c6172 	.word	0x296c6172
  383c7c:	7562203b 	.word	0x7562203b
  383c80:	68772074 	.word	0x68772074
  383c84:	74206e65 	.word	0x74206e65
  383c88:	52206568 	.word	0x52206568
  383c8c:	69626261 	.word	0x69626261
  383c90:	63612074 	.word	0x63612074
  383c94:	6c617574 	.word	0x6c617574
  383c98:	5420796c 	.word	0x5420796c
  383c9c:	204b4f4f 	.word	0x204b4f4f
  383ca0:	41572041 	.word	0x41572041
  383ca4:	20484354 	.word	0x20484354
  383ca8:	2054554f 	.word	0x2054554f
  383cac:	4920464f 	.word	0x4920464f
  383cb0:	57205354 	.word	0x57205354
  383cb4:	54534941 	.word	0x54534941
  383cb8:	54414f43 	.word	0x54414f43
  383cbc:	4f50202d 	.word	0x4f50202d
  383cc0:	54454b43 	.word	0x54454b43
  383cc4:	6e61202c 	.word	0x6e61202c
  383cc8:	6f6c2064 	.word	0x6f6c2064
  383ccc:	64656b6f 	.word	0x64656b6f
  383cd0:	20746120 	.word	0x20746120
  383cd4:	202c7469 	.word	0x202c7469
  383cd8:	20646e61 	.word	0x20646e61
  383cdc:	6e656874 	.word	0x6e656874
  383ce0:	72756820 	.word	0x72756820
  383ce4:	64656972 	.word	0x64656972
  383ce8:	2c6e6f20 	.word	0x2c6e6f20
  383cec:	696c4120 	.word	0x696c4120
  383cf0:	73206563 	.word	0x73206563
  383cf4:	74726174 	.word	0x74726174
  383cf8:	74206465 	.word	0x74206465
  383cfc:	6568206f 	.word	0x6568206f
  383d00:	65662072 	.word	0x65662072
  383d04:	202c7465 	.word	0x202c7465
  383d08:	20726f66 	.word	0x20726f66
  383d0c:	66207469 	.word	0x66207469
  383d10:	6873616c 	.word	0x6873616c
  383d14:	61206465 	.word	0x61206465
  383d18:	736f7263 	.word	0x736f7263
  383d1c:	65682073 	.word	0x65682073
  383d20:	696d2072 	.word	0x696d2072
  383d24:	7420646e 	.word	0x7420646e
  383d28:	20746168 	.word	0x20746168
  383d2c:	20656873 	.word	0x20656873
  383d30:	20646168 	.word	0x20646168
  383d34:	6576656e 	.word	0x6576656e
  383d38:	65622072 	.word	0x65622072
  383d3c:	65726f66 	.word	0x65726f66
  383d40:	65657320 	.word	0x65657320
  383d44:	2061206e 	.word	0x2061206e
  383d48:	62626172 	.word	0x62626172
  383d4c:	77207469 	.word	0x77207469
  383d50:	20687469 	.word	0x20687469
  383d54:	68746965 	.word	0x68746965
  383d58:	61207265 	.word	0x61207265
  383d5c:	69617720 	.word	0x69617720
  383d60:	6f637473 	.word	0x6f637473
  383d64:	702d7461 	.word	0x702d7461
  383d68:	656b636f 	.word	0x656b636f
  383d6c:	6f202c74 	.word	0x6f202c74
  383d70:	20612072 	.word	0x20612072
  383d74:	63746177 	.word	0x63746177
  383d78:	6f742068 	.word	0x6f742068
  383d7c:	6b617420 	.word	0x6b617420
  383d80:	756f2065 	.word	0x756f2065
  383d84:	666f2074 	.word	0x666f2074
  383d88:	2c746920 	.word	0x2c746920
  383d8c:	646e6120 	.word	0x646e6120
  383d90:	72756220 	.word	0x72756220
  383d94:	676e696e 	.word	0x676e696e
  383d98:	74697720 	.word	0x74697720
  383d9c:	75632068 	.word	0x75632068
  383da0:	736f6972 	.word	0x736f6972
  383da4:	2c797469 	.word	0x2c797469
  383da8:	65687320 	.word	0x65687320
  383dac:	6e617220 	.word	0x6e617220
  383db0:	72636120 	.word	0x72636120
  383db4:	2073736f 	.word	0x2073736f
  383db8:	20656874 	.word	0x20656874
  383dbc:	6c656966 	.word	0x6c656966
  383dc0:	66612064 	.word	0x66612064
  383dc4:	20726574 	.word	0x20726574
  383dc8:	202c7469 	.word	0x202c7469
  383dcc:	20646e61 	.word	0x20646e61
  383dd0:	74726f66 	.word	0x74726f66
  383dd4:	74616e75 	.word	0x74616e75
  383dd8:	20796c65 	.word	0x20796c65
  383ddc:	20736177 	.word	0x20736177
  383de0:	7473756a 	.word	0x7473756a
  383de4:	206e6920 	.word	0x206e6920
  383de8:	656d6974 	.word	0x656d6974
  383dec:	206f7420 	.word	0x206f7420
  383df0:	20656573 	.word	0x20656573
  383df4:	70207469 	.word	0x70207469
  383df8:	6420706f 	.word	0x6420706f
  383dfc:	206e776f 	.word	0x206e776f
  383e00:	616c2061 	.word	0x616c2061
  383e04:	20656772 	.word	0x20656772
  383e08:	62626172 	.word	0x62626172
  383e0c:	682d7469 	.word	0x682d7469
  383e10:	20656c6f 	.word	0x20656c6f
  383e14:	65646e75 	.word	0x65646e75
  383e18:	68742072 	.word	0x68742072
  383e1c:	65682065 	.word	0x65682065
  383e20:	2e656764 	.word	0x2e656764
  383e24:	0a0d0a20 	.word	0x0a0d0a20
  383e28:	6e49200d 	.word	0x6e49200d
  383e2c:	6f6e6120 	.word	0x6f6e6120
  383e30:	72656874 	.word	0x72656874
  383e34:	6d6f6d20 	.word	0x6d6f6d20
  383e38:	20746e65 	.word	0x20746e65
  383e3c:	6e776f64 	.word	0x6e776f64
  383e40:	6e657720 	.word	0x6e657720
  383e44:	6c412074 	.word	0x6c412074
  383e48:	20656369 	.word	0x20656369
  383e4c:	65746661 	.word	0x65746661
  383e50:	74692072 	.word	0x74692072
  383e54:	656e202c 	.word	0x656e202c
  383e58:	20726576 	.word	0x20726576
  383e5c:	65636e6f 	.word	0x65636e6f
  383e60:	6e6f6320 	.word	0x6e6f6320
  383e64:	65646973 	.word	0x65646973
  383e68:	676e6972 	.word	0x676e6972
  383e6c:	776f6820 	.word	0x776f6820
  383e70:	206e6920 	.word	0x206e6920
  383e74:	20656874 	.word	0x20656874
  383e78:	6c726f77 	.word	0x6c726f77
  383e7c:	68732064 	.word	0x68732064
  383e80:	61772065 	.word	0x61772065
  383e84:	6f742073 	.word	0x6f742073
  383e88:	74656720 	.word	0x74656720
  383e8c:	74756f20 	.word	0x74756f20
  383e90:	61676120 	.word	0x61676120
  383e94:	202e6e69 	.word	0x202e6e69
  383e98:	0d0a0d0a 	.word	0x0d0a0d0a
  383e9c:	65685420 	.word	0x65685420
  383ea0:	62617220 	.word	0x62617220
  383ea4:	2d746962 	.word	0x2d746962
  383ea8:	656c6f68 	.word	0x656c6f68
  383eac:	6e657720 	.word	0x6e657720
  383eb0:	74732074 	.word	0x74732074
  383eb4:	67696172 	.word	0x67696172
  383eb8:	6f207468 	.word	0x6f207468
  383ebc:	696c206e 	.word	0x696c206e
  383ec0:	6120656b 	.word	0x6120656b
  383ec4:	6e757420 	.word	0x6e757420
  383ec8:	206c656e 	.word	0x206c656e
  383ecc:	20726f66 	.word	0x20726f66
  383ed0:	656d6f73 	.word	0x656d6f73
  383ed4:	79617720 	.word	0x79617720
  383ed8:	6e61202c 	.word	0x6e61202c
  383edc:	68742064 	.word	0x68742064
  383ee0:	64206e65 	.word	0x64206e65
  383ee4:	65707069 	.word	0x65707069
  383ee8:	75732064 	.word	0x75732064
  383eec:	6e656464 	.word	0x6e656464
  383ef0:	6420796c 	.word	0x6420796c
  383ef4:	2c6e776f 	.word	0x2c6e776f
  383ef8:	206f7320 	.word	0x206f7320
  383efc:	64647573 	.word	0x64647573
  383f00:	796c6e65 	.word	0x796c6e65
  383f04:	61687420 	.word	0x61687420
  383f08:	6c412074 	.word	0x6c412074
  383f0c:	20656369 	.word	0x20656369
  383f10:	20646168 	.word	0x20646168
  383f14:	20746f6e 	.word	0x20746f6e
  383f18:	6f6d2061 	.word	0x6f6d2061
  383f1c:	746e656d 	.word	0x746e656d
  383f20:	206f7420 	.word	0x206f7420
  383f24:	6e696874 	.word	0x6e696874
  383f28:	6261206b 	.word	0x6261206b
  383f2c:	2074756f 	.word	0x2074756f
  383f30:	706f7473 	.word	0x706f7473
  383f34:	676e6970 	.word	0x676e6970
  383f38:	72656820 	.word	0x72656820
  383f3c:	666c6573 	.word	0x666c6573
  383f40:	66656220 	.word	0x66656220
  383f44:	2065726f 	.word	0x2065726f
  383f48:	20656873 	.word	0x20656873
  383f4c:	6e756f66 	.word	0x6e756f66
  383f50:	65682064 	.word	0x65682064
  383f54:	6c657372 	.word	0x6c657372
  383f58:	61662066 	.word	0x61662066
  383f5c:	6e696c6c 	.word	0x6e696c6c
  383f60:	6f642067 	.word	0x6f642067
  383f64:	61206e77 	.word	0x61206e77
  383f68:	72657620 	.word	0x72657620
  383f6c:	65642079 	.word	0x65642079
  383f70:	77207065 	.word	0x77207065
  383f74:	2e6c6c65 	.word	0x2e6c6c65
  383f78:	0d0a0d0a 	.word	0x0d0a0d0a
  383f7c:	74694520 	.word	0x74694520
  383f80:	20726568 	.word	0x20726568
  383f84:	20656874 	.word	0x20656874
  383f88:	6c6c6577 	.word	0x6c6c6577
  383f8c:	73617720 	.word	0x73617720
  383f90:	72657620 	.word	0x72657620
  383f94:	65642079 	.word	0x65642079
  383f98:	202c7065 	.word	0x202c7065
  383f9c:	7320726f 	.word	0x7320726f
  383fa0:	66206568 	.word	0x66206568
  383fa4:	206c6c65 	.word	0x206c6c65
  383fa8:	79726576 	.word	0x79726576
  383fac:	6f6c7320 	.word	0x6f6c7320
  383fb0:	2c796c77 	.word	0x2c796c77
  383fb4:	726f6620 	.word	0x726f6620
  383fb8:	65687320 	.word	0x65687320
  383fbc:	64616820 	.word	0x64616820
  383fc0:	656c7020 	.word	0x656c7020
  383fc4:	2079746e 	.word	0x2079746e
  383fc8:	7420666f 	.word	0x7420666f
  383fcc:	20656d69 	.word	0x20656d69
  383fd0:	73207361 	.word	0x73207361
  383fd4:	77206568 	.word	0x77206568
  383fd8:	20746e65 	.word	0x20746e65
  383fdc:	6e776f64 	.word	0x6e776f64
  383fe0:	206f7420 	.word	0x206f7420
  383fe4:	6b6f6f6c 	.word	0x6b6f6f6c
  383fe8:	6f626120 	.word	0x6f626120
  383fec:	68207475 	.word	0x68207475
  383ff0:	61207265 	.word	0x61207265
  383ff4:	7420646e 	.word	0x7420646e
  383ff8:	6f77206f 	.word	0x6f77206f
  383ffc:	7265646e 	.word	0x7265646e
  384000:	61687720 	.word	0x61687720
  384004:	61772074 	.word	0x61772074
  384008:	6f672073 	.word	0x6f672073
  38400c:	20676e69 	.word	0x20676e69
  384010:	68206f74 	.word	0x68206f74
  384014:	65707061 	.word	0x65707061
  384018:	656e206e 	.word	0x656e206e
  38401c:	202e7478 	.word	0x202e7478
  384020:	72694620 	.word	0x72694620
  384024:	202c7473 	.word	0x202c7473
  384028:	20656873 	.word	0x20656873
  38402c:	65697274 	.word	0x65697274
  384030:	6f742064 	.word	0x6f742064
  384034:	6f6f6c20 	.word	0x6f6f6c20
  384038:	6f64206b 	.word	0x6f64206b
  38403c:	61206e77 	.word	0x61206e77
  384040:	6d20646e 	.word	0x6d20646e
  384044:	20656b61 	.word	0x20656b61
  384048:	2074756f 	.word	0x2074756f
  38404c:	74616877 	.word	0x74616877
  384050:	65687320 	.word	0x65687320
  384054:	73617720 	.word	0x73617720
  384058:	6d6f6320 	.word	0x6d6f6320
  38405c:	20676e69 	.word	0x20676e69
  384060:	202c6f74 	.word	0x202c6f74
  384064:	20747562 	.word	0x20747562
  384068:	77207469 	.word	0x77207469
  38406c:	74207361 	.word	0x74207361
  384070:	64206f6f 	.word	0x64206f6f
  384074:	206b7261 	.word	0x206b7261
  384078:	73206f74 	.word	0x73206f74
  38407c:	61206565 	.word	0x61206565
  384080:	6874796e 	.word	0x6874796e
  384084:	3b676e69 	.word	0x3b676e69
  384088:	65687420 	.word	0x65687420
  38408c:	6873206e 	.word	0x6873206e
  384090:	6f6c2065 	.word	0x6f6c2065
  384094:	64656b6f 	.word	0x64656b6f
  384098:	20746120 	.word	0x20746120
  38409c:	20656874 	.word	0x20656874
  3840a0:	65646973 	.word	0x65646973
  3840a4:	666f2073 	.word	0x666f2073
  3840a8:	65687420 	.word	0x65687420
  3840ac:	6c657720 	.word	0x6c657720
  3840b0:	61202c6c 	.word	0x61202c6c
  3840b4:	6e20646e 	.word	0x6e20646e
  3840b8:	6369746f 	.word	0x6369746f
  3840bc:	74206465 	.word	0x74206465
  3840c0:	20746168 	.word	0x20746168
  3840c4:	79656874 	.word	0x79656874
  3840c8:	72657720 	.word	0x72657720
  3840cc:	69662065 	.word	0x69662065
  3840d0:	64656c6c 	.word	0x64656c6c
  3840d4:	74697720 	.word	0x74697720
  3840d8:	75632068 	.word	0x75632068
  3840dc:	616f6270 	.word	0x616f6270
  3840e0:	20736472 	.word	0x20736472
  3840e4:	20646e61 	.word	0x20646e61
  3840e8:	6b6f6f62 	.word	0x6b6f6f62
  3840ec:	6568732d 	.word	0x6568732d
  3840f0:	7365766c 	.word	0x7365766c
  3840f4:	6568203b 	.word	0x6568203b
  3840f8:	61206572 	.word	0x61206572
  3840fc:	7420646e 	.word	0x7420646e
  384100:	65726568 	.word	0x65726568
  384104:	65687320 	.word	0x65687320
  384108:	77617320 	.word	0x77617320
  38410c:	70616d20 	.word	0x70616d20
  384110:	6e612073 	.word	0x6e612073
  384114:	69702064 	.word	0x69702064
  384118:	72757463 	.word	0x72757463
  38411c:	68207365 	.word	0x68207365
  384120:	20676e75 	.word	0x20676e75
  384124:	6e6f7075 	.word	0x6e6f7075
  384128:	67657020 	.word	0x67657020
  38412c:	20202e73 	.word	0x20202e73
  384130:	20656853 	.word	0x20656853
  384134:	6b6f6f74 	.word	0x6b6f6f74
  384138:	776f6420 	.word	0x776f6420
  38413c:	2061206e 	.word	0x2061206e
  384140:	2072616a 	.word	0x2072616a
  384144:	6d6f7266 	.word	0x6d6f7266
  384148:	656e6f20 	.word	0x656e6f20
  38414c:	20666f20 	.word	0x20666f20
  384150:	20656874 	.word	0x20656874
  384154:	6c656873 	.word	0x6c656873
  384158:	20736576 	.word	0x20736576
  38415c:	73207361 	.word	0x73207361
  384160:	70206568 	.word	0x70206568
  384164:	65737361 	.word	0x65737361
  384168:	69203b64 	.word	0x69203b64
  38416c:	61772074 	.word	0x61772074
  384170:	616c2073 	.word	0x616c2073
  384174:	6c6c6562 	.word	0x6c6c6562
  384178:	60206465 	.word	0x60206465
  38417c:	4e41524f 	.word	0x4e41524f
  384180:	4d204547 	.word	0x4d204547
  384184:	414d5241 	.word	0x414d5241
  384188:	4544414c 	.word	0x4544414c
  38418c:	62202c27 	.word	0x62202c27
  384190:	74207475 	.word	0x74207475
  384194:	6568206f 	.word	0x6568206f
  384198:	72672072 	.word	0x72672072
  38419c:	20746165 	.word	0x20746165
  3841a0:	61736964 	.word	0x61736964
  3841a4:	696f7070 	.word	0x696f7070
  3841a8:	656d746e 	.word	0x656d746e
  3841ac:	6920746e 	.word	0x6920746e
  3841b0:	61772074 	.word	0x61772074
  3841b4:	6d652073 	.word	0x6d652073
  3841b8:	3a797470 	.word	0x3a797470
  3841bc:	68732020 	.word	0x68732020
  3841c0:	69642065 	.word	0x69642065
  3841c4:	6f6e2064 	.word	0x6f6e2064
  3841c8:	696c2074 	.word	0x696c2074
  3841cc:	7420656b 	.word	0x7420656b
  3841d0:	7264206f 	.word	0x7264206f
  3841d4:	7420706f 	.word	0x7420706f
  3841d8:	6a206568 	.word	0x6a206568
  3841dc:	66207261 	.word	0x66207261
  3841e0:	6620726f 	.word	0x6620726f
  3841e4:	20726165 	.word	0x20726165
  3841e8:	6b20666f 	.word	0x6b20666f
  3841ec:	696c6c69 	.word	0x696c6c69
  3841f0:	7320676e 	.word	0x7320676e
  3841f4:	62656d6f 	.word	0x62656d6f
  3841f8:	2c79646f 	.word	0x2c79646f
  3841fc:	206f7320 	.word	0x206f7320
  384200:	616e616d 	.word	0x616e616d
  384204:	20646567 	.word	0x20646567
  384208:	70206f74 	.word	0x70206f74
  38420c:	69207475 	.word	0x69207475
  384210:	6e692074 	.word	0x6e692074
  384214:	6f206f74 	.word	0x6f206f74
  384218:	6f20656e 	.word	0x6f20656e
  38421c:	68742066 	.word	0x68742066
  384220:	75632065 	.word	0x75632065
  384224:	616f6270 	.word	0x616f6270
  384228:	20736472 	.word	0x20736472
  38422c:	73207361 	.word	0x73207361
  384230:	66206568 	.word	0x66206568
  384234:	206c6c65 	.word	0x206c6c65
  384238:	74736170 	.word	0x74736170
  38423c:	2e746920 	.word	0x2e746920
	...
  384248:	6c696146 	.word	0x6c696146
  38424c:	69206465 	.word	0x69206465
  384250:	6974696e 	.word	0x6974696e
  384254:	7a696c61 	.word	0x7a696c61
  384258:	20676e69 	.word	0x20676e69
  38425c:	65646956 	.word	0x65646956
  384260:	43202e6f 	.word	0x43202e6f
  384264:	6f6e6e61 	.word	0x6f6e6e61
  384268:	6f632074 	.word	0x6f632074
  38426c:	6e69746e 	.word	0x6e69746e
  384270:	0a2e6575 	.word	0x0a2e6575
  384274:	0000000d 	.word	0x0000000d
  384278:	00000000 	.word	0x00000000
  38427c:	00140000 	.word	0x00140000
  384280:	00000000 	.word	0x00000000
  384284:	00000011 	.word	0x00000011
  384288:	00000011 	.word	0x00000011
  38428c:	00030014 	.word	0x00030014
  384290:	00030014 	.word	0x00030014
  384294:	00070014 	.word	0x00070014
  384298:	00070014 	.word	0x00070014
  38429c:	000a0011 	.word	0x000a0011
  3842a0:	000a0011 	.word	0x000a0011
  3842a4:	000a0000 	.word	0x000a0000
  3842a8:	000a0011 	.word	0x000a0011
  3842ac:	000d0014 	.word	0x000d0014
  3842b0:	000d0014 	.word	0x000d0014
  3842b4:	00110014 	.word	0x00110014
  3842b8:	00110014 	.word	0x00110014
  3842bc:	00140011 	.word	0x00140011
  3842c0:	00140011 	.word	0x00140011
  3842c4:	00140000 	.word	0x00140000
  3842c8:	0000000a 	.word	0x0000000a
  3842cc:	00000000 	.word	0x00000000
  3842d0:	203a      	.short	0x203a
	...

Disassembly of section .stack:

00000000003842d3 <__stack_start-0xd>:
	...

00000000003842e0 <__stack_start>:
	...

Disassembly of section .comment:

0000000000000000 <.comment>:
   0:	3a434347 	ccmn	w26, w3, #0x7, mi  // mi = first
   4:	4e472820 	trn1	v0.8h, v1.8h, v7.8h
   8:	6f542055 	umlal2	v21.4s, v2.8h, v4.h[1]
   c:	68636c6f 	.inst	0x68636c6f ; undefined
  10:	206e6961 	.inst	0x206e6961 ; undefined
  14:	20726f66 	.inst	0x20726f66 ; undefined
  18:	20656874 	.inst	0x20656874 ; undefined
  1c:	72702d41 	.inst	0x72702d41 ; undefined
  20:	6c69666f 	ldnp	d15, d25, [x19, #-368]
  24:	72412065 	.inst	0x72412065 ; undefined
  28:	74696863 	.inst	0x74696863 ; undefined
  2c:	75746365 	.inst	0x75746365 ; undefined
  30:	38206572 	.inst	0x38206572 ; undefined
  34:	322d332e 	orr	w14, w25, #0xfff80000
  38:	2e393130 	usubw	v16.8h, v9.8h, v25.8b
  3c:	28203330 	stnp	w16, w12, [x25, #-256]
  40:	2d6d7261 	ldp	s1, s28, [x19, #-152]
  44:	2d6c6572 	ldp	s18, s25, [x11, #-160]
  48:	36332e38 	tbz	w24, #6, 660c <__stack_size__+0x360c>
  4c:	38202929 	.inst	0x38202929 ; undefined
  50:	302e332e 	adr	x14, 5c6b5 <__stack_size__+0x596b5>
	...
